	.text
	.syntax unified
	.eabi_attribute	67, "2.09"	@ Tag_conformance
	.cpu	cortex-m0
	.eabi_attribute	6, 12	@ Tag_CPU_arch
	.eabi_attribute	7, 77	@ Tag_CPU_arch_profile
	.eabi_attribute	8, 0	@ Tag_ARM_ISA_use
	.eabi_attribute	9, 1	@ Tag_THUMB_ISA_use
	.eabi_attribute	34, 0	@ Tag_CPU_unaligned_access
	.eabi_attribute	17, 1	@ Tag_ABI_PCS_GOT_use
	.eabi_attribute	20, 2	@ Tag_ABI_FP_denormal
	.eabi_attribute	21, 0	@ Tag_ABI_FP_exceptions
	.eabi_attribute	23, 1	@ Tag_ABI_FP_number_model
	.eabi_attribute	24, 1	@ Tag_ABI_align_needed
	.eabi_attribute	25, 1	@ Tag_ABI_align_preserved
	.eabi_attribute	38, 1	@ Tag_ABI_FP_16bit_format
	.eabi_attribute	18, 4	@ Tag_ABI_PCS_wchar_t
	.eabi_attribute	26, 2	@ Tag_ABI_enum_size
	.eabi_attribute	14, 0	@ Tag_ABI_PCS_R9_use
	.file	"clk.c"
	.file	1 "C:\\Keil_v5\\ARM\\ARMCLANG\\bin\\..\\include" "stdint.h"
	.file	2 "C:\\Users\\jcliu\\Downloads\\m032_cpp_cout_gpio_int_ac6\\SampleCode\\StdDriver\\CPP_IN_OUT\\KEIL" "../../../../Library/StdDriver/src/clk.c"
	.file	3 "C:\\Users\\jcliu\\Downloads\\m032_cpp_cout_gpio_int_ac6\\SampleCode\\StdDriver\\CPP_IN_OUT\\KEIL" "../../../../Library/Device/Nuvoton/M031/Include\\clk_reg.h"
	.file	4 "C:\\Users\\jcliu\\Downloads\\m032_cpp_cout_gpio_int_ac6\\SampleCode\\StdDriver\\CPP_IN_OUT\\KEIL" "../../../../Library/Device/Nuvoton/M031/Include\\sys_reg.h"
	.file	5 "C:\\Users\\jcliu\\Downloads\\m032_cpp_cout_gpio_int_ac6\\SampleCode\\StdDriver\\CPP_IN_OUT\\KEIL" "../../../../Library/CMSIS/Include\\core_cm0.h"
	.file	6 "C:\\Users\\jcliu\\Downloads\\m032_cpp_cout_gpio_int_ac6\\SampleCode\\StdDriver\\CPP_IN_OUT\\KEIL" "../../../../Library/Device/Nuvoton/M031/Include\\M031Series.h"
	.section	.text.CLK_DisableCKO,"ax",%progbits
	.hidden	CLK_DisableCKO                  @ -- Begin function CLK_DisableCKO
	.globl	CLK_DisableCKO
	.p2align	2
	.type	CLK_DisableCKO,%function
	.code	16                              @ @CLK_DisableCKO
	.thumb_func
CLK_DisableCKO:
.Lfunc_begin0:
	.loc	2 35 0                          @ ../../../../Library/StdDriver/src/clk.c:35:0
	.fnstart
	.cfi_sections .debug_frame
	.cfi_startproc
@ %bb.0:
	ldr	r1, __arm_cp.0_0
.Ltmp0:
	.loc	2 37 18 prologue_end            @ ../../../../Library/StdDriver/src/clk.c:37:18
	ldr	r0, [r1]
	movs	r2, #64
	bics	r0, r2
	str	r0, [r1]
	.loc	2 38 1                          @ ../../../../Library/StdDriver/src/clk.c:38:1
	bx	lr
.Ltmp1:
	.p2align	2
@ %bb.1:
	.loc	2 0 1 is_stmt 0                 @ ../../../../Library/StdDriver/src/clk.c:0:1
__arm_cp.0_0:
	.long	1073742344                      @ 0x40000208
.Lcpi_end0:
	.size	__arm_cp.0_0, .Lcpi_end0-__arm_cp.0_0
.Lfunc_end0:
	.size	CLK_DisableCKO, .Lfunc_end0-CLK_DisableCKO
	.cfi_endproc
	.cantunwind
	.fnend
                                        @ -- End function
	.section	.text.CLK_EnableCKO,"ax",%progbits
	.hidden	CLK_EnableCKO                   @ -- Begin function CLK_EnableCKO
	.globl	CLK_EnableCKO
	.p2align	2
	.type	CLK_EnableCKO,%function
	.code	16                              @ @CLK_EnableCKO
	.thumb_func
CLK_EnableCKO:
.Lfunc_begin1:
	.loc	2 62 0 is_stmt 1                @ ../../../../Library/StdDriver/src/clk.c:62:0
	.fnstart
	.cfi_startproc
@ %bb.0:
	.pad	#12
	sub	sp, #12
	.cfi_def_cfa_offset 12
	str	r0, [sp, #8]
	str	r1, [sp, #4]
	str	r2, [sp]
.Ltmp2:
	.loc	2 64 45 prologue_end            @ ../../../../Library/StdDriver/src/clk.c:64:45
	ldr	r0, [sp, #4]
	.loc	2 64 58 is_stmt 0               @ ../../../../Library/StdDriver/src/clk.c:64:58
	ldr	r1, [sp]
	.loc	2 64 73                         @ ../../../../Library/StdDriver/src/clk.c:64:73
	lsls	r1, r1, #5
	.loc	2 64 43                         @ ../../../../Library/StdDriver/src/clk.c:64:43
	orrs	r0, r1
	movs	r1, #16
	.loc	2 64 55                         @ ../../../../Library/StdDriver/src/clk.c:64:55
	orrs	r0, r1
	ldr	r1, __arm_cp.1_0
	.loc	2 64 18                         @ ../../../../Library/StdDriver/src/clk.c:64:18
	str	r0, [r1]
	ldr	r1, __arm_cp.1_1
	.loc	2 67 18 is_stmt 1               @ ../../../../Library/StdDriver/src/clk.c:67:18
	ldr	r0, [r1]
	movs	r2, #64
	orrs	r0, r2
	str	r0, [r1]
	ldr	r1, __arm_cp.1_2
	.loc	2 70 26                         @ ../../../../Library/StdDriver/src/clk.c:70:26
	ldr	r0, [r1]
	movs	r2, #112
	.loc	2 70 34 is_stmt 0               @ ../../../../Library/StdDriver/src/clk.c:70:34
	bics	r0, r2
	.loc	2 70 67                         @ ../../../../Library/StdDriver/src/clk.c:70:67
	ldr	r2, [sp, #8]
	.loc	2 70 64                         @ ../../../../Library/StdDriver/src/clk.c:70:64
	orrs	r0, r2
	.loc	2 70 18                         @ ../../../../Library/StdDriver/src/clk.c:70:18
	str	r0, [r1]
	.loc	2 71 1 epilogue_begin is_stmt 1 @ ../../../../Library/StdDriver/src/clk.c:71:1
	add	sp, #12
	bx	lr
.Ltmp3:
	.p2align	2
@ %bb.1:
	.loc	2 0 1 is_stmt 0                 @ ../../../../Library/StdDriver/src/clk.c:0:1
__arm_cp.1_0:
	.long	1073742432                      @ 0x40000260
.Lcpi_end1:
	.size	__arm_cp.1_0, .Lcpi_end1-__arm_cp.1_0
__arm_cp.1_1:
	.long	1073742344                      @ 0x40000208
.Lcpi_end2:
	.size	__arm_cp.1_1, .Lcpi_end2-__arm_cp.1_1
__arm_cp.1_2:
	.long	1073742356                      @ 0x40000214
.Lcpi_end3:
	.size	__arm_cp.1_2, .Lcpi_end3-__arm_cp.1_2
.Lfunc_end1:
	.size	CLK_EnableCKO, .Lfunc_end1-CLK_EnableCKO
	.cfi_endproc
	.cantunwind
	.fnend
                                        @ -- End function
	.section	.text.CLK_PowerDown,"ax",%progbits
	.hidden	CLK_PowerDown                   @ -- Begin function CLK_PowerDown
	.globl	CLK_PowerDown
	.p2align	2
	.type	CLK_PowerDown,%function
	.code	16                              @ @CLK_PowerDown
	.thumb_func
CLK_PowerDown:
.Lfunc_begin2:
	.loc	2 82 0 is_stmt 1                @ ../../../../Library/StdDriver/src/clk.c:82:0
	.fnstart
	.cfi_startproc
@ %bb.0:
	.pad	#4
	sub	sp, #4
	.cfi_def_cfa_offset 4
	movs	r0, #0
.Ltmp4:
	.loc	2 83 23 prologue_end            @ ../../../../Library/StdDriver/src/clk.c:83:23
	str	r0, [sp]
	ldr	r0, __arm_cp.2_0
.Ltmp5:
	.loc	2 86 13                         @ ../../../../Library/StdDriver/src/clk.c:86:13
	ldr	r0, [r0]
.Ltmp6:
	.loc	2 86 8 is_stmt 0                @ ../../../../Library/StdDriver/src/clk.c:86:8
	lsls	r0, r0, #30
	cmp	r0, #0
	beq	.LBB2_2
	b	.LBB2_1
.LBB2_1:
.Ltmp7:
	.loc	2 88 9 is_stmt 1                @ ../../../../Library/StdDriver/src/clk.c:88:9
	b	.LBB2_4
.Ltmp8:
.LBB2_2:
	.loc	2 0 9 is_stmt 0                 @ ../../../../Library/StdDriver/src/clk.c:0:9
	ldr	r1, __arm_cp.2_1
	.loc	2 92 14 is_stmt 1               @ ../../../../Library/StdDriver/src/clk.c:92:14
	ldr	r0, [r1]
	movs	r2, #4
	orrs	r0, r2
	str	r0, [r1]
	ldr	r1, __arm_cp.2_2
	.loc	2 95 17                         @ ../../../../Library/StdDriver/src/clk.c:95:17
	ldr	r0, [r1]
	movs	r2, #128
	orrs	r0, r2
	str	r0, [r1]
	ldr	r1, __arm_cp.2_3
	.loc	2 98 34                         @ ../../../../Library/StdDriver/src/clk.c:98:34
	ldr	r0, [r1]
	movs	r2, #2
	.loc	2 98 39 is_stmt 0               @ ../../../../Library/StdDriver/src/clk.c:98:39
	ands	r0, r2
	.loc	2 98 23                         @ ../../../../Library/StdDriver/src/clk.c:98:23
	str	r0, [sp]
	.loc	2 101 19 is_stmt 1              @ ../../../../Library/StdDriver/src/clk.c:101:19
	ldr	r0, [r1]
	bics	r0, r2
	str	r0, [r1]
	.loc	2 104 5                         @ ../../../../Library/StdDriver/src/clk.c:104:5
	wfi
.Ltmp9:
	.loc	2 107 8                         @ ../../../../Library/StdDriver/src/clk.c:107:8
	ldr	r0, [sp]
.Ltmp10:
	.loc	2 107 8 is_stmt 0               @ ../../../../Library/StdDriver/src/clk.c:107:8
	cmp	r0, #0
	beq	.LBB2_4
	b	.LBB2_3
.LBB2_3:
	.loc	2 0 8                           @ ../../../../Library/StdDriver/src/clk.c:0:8
	ldr	r1, __arm_cp.2_3
.Ltmp11:
	.loc	2 107 41                        @ ../../../../Library/StdDriver/src/clk.c:107:41
	ldr	r0, [r1]
	movs	r2, #2
	orrs	r0, r2
	str	r0, [r1]
	.loc	2 107 27                        @ ../../../../Library/StdDriver/src/clk.c:107:27
	b	.LBB2_4
.Ltmp12:
.LBB2_4:
	.loc	2 108 1 epilogue_begin is_stmt 1 @ ../../../../Library/StdDriver/src/clk.c:108:1
	add	sp, #4
	bx	lr
.Ltmp13:
	.p2align	2
@ %bb.5:
	.loc	2 0 1 is_stmt 0                 @ ../../../../Library/StdDriver/src/clk.c:0:1
__arm_cp.2_0:
	.long	1073742064                      @ 0x400000f0
.Lcpi_end4:
	.size	__arm_cp.2_0, .Lcpi_end4-__arm_cp.2_0
__arm_cp.2_1:
	.long	3758157072                      @ 0xe000ed10
.Lcpi_end5:
	.size	__arm_cp.2_1, .Lcpi_end5-__arm_cp.2_1
__arm_cp.2_2:
	.long	1073742336                      @ 0x40000200
.Lcpi_end6:
	.size	__arm_cp.2_2, .Lcpi_end6-__arm_cp.2_2
__arm_cp.2_3:
	.long	3758153744                      @ 0xe000e010
.Lcpi_end7:
	.size	__arm_cp.2_3, .Lcpi_end7-__arm_cp.2_3
.Lfunc_end2:
	.size	CLK_PowerDown, .Lfunc_end2-CLK_PowerDown
	.cfi_endproc
	.cantunwind
	.fnend
                                        @ -- End function
	.section	.text.CLK_Idle,"ax",%progbits
	.hidden	CLK_Idle                        @ -- Begin function CLK_Idle
	.globl	CLK_Idle
	.p2align	2
	.type	CLK_Idle,%function
	.code	16                              @ @CLK_Idle
	.thumb_func
CLK_Idle:
.Lfunc_begin3:
	.loc	2 118 0 is_stmt 1               @ ../../../../Library/StdDriver/src/clk.c:118:0
	.fnstart
	.cfi_startproc
@ %bb.0:
	ldr	r1, __arm_cp.3_0
.Ltmp14:
	.loc	2 120 14 prologue_end           @ ../../../../Library/StdDriver/src/clk.c:120:14
	ldr	r0, [r1]
	movs	r2, #4
	bics	r0, r2
	str	r0, [r1]
	ldr	r1, __arm_cp.3_1
	.loc	2 123 17                        @ ../../../../Library/StdDriver/src/clk.c:123:17
	ldr	r0, [r1]
	movs	r2, #128
	bics	r0, r2
	str	r0, [r1]
	.loc	2 126 5                         @ ../../../../Library/StdDriver/src/clk.c:126:5
	wfi
	.loc	2 127 1                         @ ../../../../Library/StdDriver/src/clk.c:127:1
	bx	lr
.Ltmp15:
	.p2align	2
@ %bb.1:
	.loc	2 0 1 is_stmt 0                 @ ../../../../Library/StdDriver/src/clk.c:0:1
__arm_cp.3_0:
	.long	3758157072                      @ 0xe000ed10
.Lcpi_end8:
	.size	__arm_cp.3_0, .Lcpi_end8-__arm_cp.3_0
__arm_cp.3_1:
	.long	1073742336                      @ 0x40000200
.Lcpi_end9:
	.size	__arm_cp.3_1, .Lcpi_end9-__arm_cp.3_1
.Lfunc_end3:
	.size	CLK_Idle, .Lfunc_end3-CLK_Idle
	.cfi_endproc
	.cantunwind
	.fnend
                                        @ -- End function
	.section	.text.CLK_GetHXTFreq,"ax",%progbits
	.hidden	CLK_GetHXTFreq                  @ -- Begin function CLK_GetHXTFreq
	.globl	CLK_GetHXTFreq
	.p2align	2
	.type	CLK_GetHXTFreq,%function
	.code	16                              @ @CLK_GetHXTFreq
	.thumb_func
CLK_GetHXTFreq:
.Lfunc_begin4:
	.loc	2 136 0 is_stmt 1               @ ../../../../Library/StdDriver/src/clk.c:136:0
	.fnstart
	.cfi_startproc
@ %bb.0:
	.pad	#4
	sub	sp, #4
	.cfi_def_cfa_offset 4
	ldr	r0, __arm_cp.4_0
.Ltmp16:
	.loc	2 137 13 prologue_end           @ ../../../../Library/StdDriver/src/clk.c:137:13
	ldr	r0, [r0]
.Ltmp17:
	.loc	2 137 8 is_stmt 0               @ ../../../../Library/StdDriver/src/clk.c:137:8
	lsls	r0, r0, #31
	cmp	r0, #0
	beq	.LBB4_2
	b	.LBB4_1
.LBB4_1:
	.loc	2 0 8                           @ ../../../../Library/StdDriver/src/clk.c:0:8
	ldr	r0, __arm_cp.4_1
.Ltmp18:
	.loc	2 138 9 is_stmt 1               @ ../../../../Library/StdDriver/src/clk.c:138:9
	str	r0, [sp]
	b	.LBB4_3
.LBB4_2:
	.loc	2 0 9 is_stmt 0                 @ ../../../../Library/StdDriver/src/clk.c:0:9
	movs	r0, #0
	.loc	2 140 9 is_stmt 1               @ ../../../../Library/StdDriver/src/clk.c:140:9
	str	r0, [sp]
	b	.LBB4_3
.Ltmp19:
.LBB4_3:
	.loc	2 141 1                         @ ../../../../Library/StdDriver/src/clk.c:141:1
	ldr	r0, [sp]
	.loc	2 141 1 epilogue_begin is_stmt 0 @ ../../../../Library/StdDriver/src/clk.c:141:1
	add	sp, #4
	bx	lr
.Ltmp20:
	.p2align	2
@ %bb.4:
	.loc	2 0 1                           @ ../../../../Library/StdDriver/src/clk.c:0:1
__arm_cp.4_0:
	.long	1073742336                      @ 0x40000200
.Lcpi_end10:
	.size	__arm_cp.4_0, .Lcpi_end10-__arm_cp.4_0
__arm_cp.4_1:
	.long	32000000                        @ 0x1e84800
.Lcpi_end11:
	.size	__arm_cp.4_1, .Lcpi_end11-__arm_cp.4_1
.Lfunc_end4:
	.size	CLK_GetHXTFreq, .Lfunc_end4-CLK_GetHXTFreq
	.cfi_endproc
	.cantunwind
	.fnend
                                        @ -- End function
	.section	.text.CLK_GetLXTFreq,"ax",%progbits
	.hidden	CLK_GetLXTFreq                  @ -- Begin function CLK_GetLXTFreq
	.globl	CLK_GetLXTFreq
	.p2align	2
	.type	CLK_GetLXTFreq,%function
	.code	16                              @ @CLK_GetLXTFreq
	.thumb_func
CLK_GetLXTFreq:
.Lfunc_begin5:
	.loc	2 150 0 is_stmt 1               @ ../../../../Library/StdDriver/src/clk.c:150:0
	.fnstart
	.cfi_startproc
@ %bb.0:
	.pad	#4
	sub	sp, #4
	.cfi_def_cfa_offset 4
	ldr	r0, __arm_cp.5_0
.Ltmp21:
	.loc	2 151 13 prologue_end           @ ../../../../Library/StdDriver/src/clk.c:151:13
	ldr	r0, [r0]
.Ltmp22:
	.loc	2 151 8 is_stmt 0               @ ../../../../Library/StdDriver/src/clk.c:151:8
	lsls	r0, r0, #30
	cmp	r0, #0
	bpl	.LBB5_2
	b	.LBB5_1
.LBB5_1:
	.loc	2 0 8                           @ ../../../../Library/StdDriver/src/clk.c:0:8
	movs	r0, #1
	lsls	r0, r0, #15
.Ltmp23:
	.loc	2 152 9 is_stmt 1               @ ../../../../Library/StdDriver/src/clk.c:152:9
	str	r0, [sp]
	b	.LBB5_3
.LBB5_2:
	.loc	2 0 9 is_stmt 0                 @ ../../../../Library/StdDriver/src/clk.c:0:9
	movs	r0, #0
	.loc	2 154 9 is_stmt 1               @ ../../../../Library/StdDriver/src/clk.c:154:9
	str	r0, [sp]
	b	.LBB5_3
.Ltmp24:
.LBB5_3:
	.loc	2 155 1                         @ ../../../../Library/StdDriver/src/clk.c:155:1
	ldr	r0, [sp]
	.loc	2 155 1 epilogue_begin is_stmt 0 @ ../../../../Library/StdDriver/src/clk.c:155:1
	add	sp, #4
	bx	lr
.Ltmp25:
	.p2align	2
@ %bb.4:
	.loc	2 0 1                           @ ../../../../Library/StdDriver/src/clk.c:0:1
__arm_cp.5_0:
	.long	1073742336                      @ 0x40000200
.Lcpi_end12:
	.size	__arm_cp.5_0, .Lcpi_end12-__arm_cp.5_0
.Lfunc_end5:
	.size	CLK_GetLXTFreq, .Lfunc_end5-CLK_GetLXTFreq
	.cfi_endproc
	.cantunwind
	.fnend
                                        @ -- End function
	.section	.text.CLK_GetPCLK0Freq,"ax",%progbits
	.hidden	CLK_GetPCLK0Freq                @ -- Begin function CLK_GetPCLK0Freq
	.globl	CLK_GetPCLK0Freq
	.p2align	2
	.type	CLK_GetPCLK0Freq,%function
	.code	16                              @ @CLK_GetPCLK0Freq
	.thumb_func
CLK_GetPCLK0Freq:
.Lfunc_begin6:
	.loc	2 164 0 is_stmt 1               @ ../../../../Library/StdDriver/src/clk.c:164:0
	.fnstart
	.cfi_startproc
@ %bb.0:
	.save	{r7, lr}
	push	{r7, lr}
	.cfi_def_cfa_offset 8
	.cfi_offset lr, -4
	.cfi_offset r7, -8
	.pad	#8
	sub	sp, #8
	.cfi_def_cfa_offset 16
.Ltmp26:
	.loc	2 167 5 prologue_end            @ ../../../../Library/StdDriver/src/clk.c:167:5
	bl	SystemCoreClockUpdate
	ldr	r0, __arm_cp.6_0
	.loc	2 168 22                        @ ../../../../Library/StdDriver/src/clk.c:168:22
	ldr	r0, [r0]
	movs	r1, #7
	.loc	2 168 30 is_stmt 0              @ ../../../../Library/StdDriver/src/clk.c:168:30
	ands	r0, r1
	.loc	2 168 14                        @ ../../../../Library/StdDriver/src/clk.c:168:14
	str	r0, [sp, #4]
	.loc	2 169 13 is_stmt 1              @ ../../../../Library/StdDriver/src/clk.c:169:13
	ldr	r0, __arm_cp.6_1
	ldr	r0, [r0]
	.loc	2 169 32 is_stmt 0              @ ../../../../Library/StdDriver/src/clk.c:169:32
	ldr	r1, [sp, #4]
	.loc	2 169 29                        @ ../../../../Library/StdDriver/src/clk.c:169:29
	lsrs	r0, r1
	.loc	2 169 5 epilogue_begin          @ ../../../../Library/StdDriver/src/clk.c:169:5
	add	sp, #8
	pop	{r7, pc}
.Ltmp27:
	.p2align	2
@ %bb.1:
	.loc	2 0 5                           @ ../../../../Library/StdDriver/src/clk.c:0:5
__arm_cp.6_0:
	.long	1073742388                      @ 0x40000234
.Lcpi_end13:
	.size	__arm_cp.6_0, .Lcpi_end13-__arm_cp.6_0
__arm_cp.6_1:
	.long	SystemCoreClock
.Lcpi_end14:
	.size	__arm_cp.6_1, .Lcpi_end14-__arm_cp.6_1
.Lfunc_end6:
	.size	CLK_GetPCLK0Freq, .Lfunc_end6-CLK_GetPCLK0Freq
	.cfi_endproc
	.cantunwind
	.fnend
                                        @ -- End function
	.section	.text.CLK_GetPCLK1Freq,"ax",%progbits
	.hidden	CLK_GetPCLK1Freq                @ -- Begin function CLK_GetPCLK1Freq
	.globl	CLK_GetPCLK1Freq
	.p2align	2
	.type	CLK_GetPCLK1Freq,%function
	.code	16                              @ @CLK_GetPCLK1Freq
	.thumb_func
CLK_GetPCLK1Freq:
.Lfunc_begin7:
	.loc	2 179 0 is_stmt 1               @ ../../../../Library/StdDriver/src/clk.c:179:0
	.fnstart
	.cfi_startproc
@ %bb.0:
	.save	{r7, lr}
	push	{r7, lr}
	.cfi_def_cfa_offset 8
	.cfi_offset lr, -4
	.cfi_offset r7, -8
	.pad	#8
	sub	sp, #8
	.cfi_def_cfa_offset 16
.Ltmp28:
	.loc	2 182 5 prologue_end            @ ../../../../Library/StdDriver/src/clk.c:182:5
	bl	SystemCoreClockUpdate
	ldr	r0, __arm_cp.7_0
	.loc	2 183 22                        @ ../../../../Library/StdDriver/src/clk.c:183:22
	ldr	r0, [r0]
	movs	r1, #112
	.loc	2 183 30 is_stmt 0              @ ../../../../Library/StdDriver/src/clk.c:183:30
	ands	r0, r1
	.loc	2 183 57                        @ ../../../../Library/StdDriver/src/clk.c:183:57
	lsrs	r0, r0, #4
	.loc	2 183 14                        @ ../../../../Library/StdDriver/src/clk.c:183:14
	str	r0, [sp, #4]
	.loc	2 184 13 is_stmt 1              @ ../../../../Library/StdDriver/src/clk.c:184:13
	ldr	r0, __arm_cp.7_1
	ldr	r0, [r0]
	.loc	2 184 32 is_stmt 0              @ ../../../../Library/StdDriver/src/clk.c:184:32
	ldr	r1, [sp, #4]
	.loc	2 184 29                        @ ../../../../Library/StdDriver/src/clk.c:184:29
	lsrs	r0, r1
	.loc	2 184 5 epilogue_begin          @ ../../../../Library/StdDriver/src/clk.c:184:5
	add	sp, #8
	pop	{r7, pc}
.Ltmp29:
	.p2align	2
@ %bb.1:
	.loc	2 0 5                           @ ../../../../Library/StdDriver/src/clk.c:0:5
__arm_cp.7_0:
	.long	1073742388                      @ 0x40000234
.Lcpi_end15:
	.size	__arm_cp.7_0, .Lcpi_end15-__arm_cp.7_0
__arm_cp.7_1:
	.long	SystemCoreClock
.Lcpi_end16:
	.size	__arm_cp.7_1, .Lcpi_end16-__arm_cp.7_1
.Lfunc_end7:
	.size	CLK_GetPCLK1Freq, .Lfunc_end7-CLK_GetPCLK1Freq
	.cfi_endproc
	.cantunwind
	.fnend
                                        @ -- End function
	.section	.text.CLK_GetHCLKFreq,"ax",%progbits
	.hidden	CLK_GetHCLKFreq                 @ -- Begin function CLK_GetHCLKFreq
	.globl	CLK_GetHCLKFreq
	.p2align	2
	.type	CLK_GetHCLKFreq,%function
	.code	16                              @ @CLK_GetHCLKFreq
	.thumb_func
CLK_GetHCLKFreq:
.Lfunc_begin8:
	.loc	2 194 0 is_stmt 1               @ ../../../../Library/StdDriver/src/clk.c:194:0
	.fnstart
	.cfi_startproc
@ %bb.0:
	.save	{r7, lr}
	push	{r7, lr}
	.cfi_def_cfa_offset 8
	.cfi_offset lr, -4
	.cfi_offset r7, -8
.Ltmp30:
	.loc	2 195 5 prologue_end            @ ../../../../Library/StdDriver/src/clk.c:195:5
	bl	SystemCoreClockUpdate
	.loc	2 196 12                        @ ../../../../Library/StdDriver/src/clk.c:196:12
	ldr	r0, __arm_cp.8_0
	ldr	r0, [r0]
	.loc	2 196 5 epilogue_begin is_stmt 0 @ ../../../../Library/StdDriver/src/clk.c:196:5
	pop	{r7, pc}
.Ltmp31:
	.p2align	2
@ %bb.1:
	.loc	2 0 5                           @ ../../../../Library/StdDriver/src/clk.c:0:5
__arm_cp.8_0:
	.long	SystemCoreClock
.Lcpi_end17:
	.size	__arm_cp.8_0, .Lcpi_end17-__arm_cp.8_0
.Lfunc_end8:
	.size	CLK_GetHCLKFreq, .Lfunc_end8-CLK_GetHCLKFreq
	.cfi_endproc
	.cantunwind
	.fnend
                                        @ -- End function
	.section	.text.CLK_GetCPUFreq,"ax",%progbits
	.hidden	CLK_GetCPUFreq                  @ -- Begin function CLK_GetCPUFreq
	.globl	CLK_GetCPUFreq
	.p2align	2
	.type	CLK_GetCPUFreq,%function
	.code	16                              @ @CLK_GetCPUFreq
	.thumb_func
CLK_GetCPUFreq:
.Lfunc_begin9:
	.loc	2 206 0 is_stmt 1               @ ../../../../Library/StdDriver/src/clk.c:206:0
	.fnstart
	.cfi_startproc
@ %bb.0:
	.save	{r7, lr}
	push	{r7, lr}
	.cfi_def_cfa_offset 8
	.cfi_offset lr, -4
	.cfi_offset r7, -8
.Ltmp32:
	.loc	2 207 5 prologue_end            @ ../../../../Library/StdDriver/src/clk.c:207:5
	bl	SystemCoreClockUpdate
	.loc	2 208 12                        @ ../../../../Library/StdDriver/src/clk.c:208:12
	ldr	r0, __arm_cp.9_0
	ldr	r0, [r0]
	.loc	2 208 5 epilogue_begin is_stmt 0 @ ../../../../Library/StdDriver/src/clk.c:208:5
	pop	{r7, pc}
.Ltmp33:
	.p2align	2
@ %bb.1:
	.loc	2 0 5                           @ ../../../../Library/StdDriver/src/clk.c:0:5
__arm_cp.9_0:
	.long	SystemCoreClock
.Lcpi_end18:
	.size	__arm_cp.9_0, .Lcpi_end18-__arm_cp.9_0
.Lfunc_end9:
	.size	CLK_GetCPUFreq, .Lfunc_end9-CLK_GetCPUFreq
	.cfi_endproc
	.cantunwind
	.fnend
                                        @ -- End function
	.section	.text.CLK_SetCoreClock,"ax",%progbits
	.hidden	CLK_SetCoreClock                @ -- Begin function CLK_SetCoreClock
	.globl	CLK_SetCoreClock
	.p2align	2
	.type	CLK_SetCoreClock,%function
	.code	16                              @ @CLK_SetCoreClock
	.thumb_func
CLK_SetCoreClock:
.Lfunc_begin10:
	.loc	2 223 0 is_stmt 1               @ ../../../../Library/StdDriver/src/clk.c:223:0
	.fnstart
	.cfi_startproc
@ %bb.0:
	.save	{r7, lr}
	push	{r7, lr}
	.cfi_def_cfa_offset 8
	.cfi_offset lr, -4
	.cfi_offset r7, -8
	.pad	#16
	sub	sp, #16
	.cfi_def_cfa_offset 24
	str	r0, [sp, #12]
	ldr	r0, __arm_cp.10_0
.Ltmp34:
	.loc	2 228 23 prologue_end           @ ../../../../Library/StdDriver/src/clk.c:228:23
	ldr	r0, [r0]
	movs	r1, #16
	.loc	2 228 30 is_stmt 0              @ ../../../../Library/StdDriver/src/clk.c:228:30
	ands	r0, r1
	.loc	2 228 16                        @ ../../../../Library/StdDriver/src/clk.c:228:16
	str	r0, [sp, #8]
	movs	r0, #1
	lsls	r0, r0, #30
.Ltmp35:
	.loc	2 231 10 is_stmt 1              @ ../../../../Library/StdDriver/src/clk.c:231:10
	ldr	r0, [r0]
	movs	r1, #15
	lsls	r1, r1, #8
	ands	r0, r1
	lsrs	r0, r0, #8
	.loc	2 231 52 is_stmt 0              @ ../../../../Library/StdDriver/src/clk.c:231:52
	cmp	r0, #6
	beq	.LBB10_2
	b	.LBB10_1
.LBB10_1:
	.loc	2 0 52                          @ ../../../../Library/StdDriver/src/clk.c:0:52
	movs	r0, #1
	lsls	r0, r0, #30
	.loc	2 231 56                        @ ../../../../Library/StdDriver/src/clk.c:231:56
	ldr	r0, [r0]
	movs	r1, #15
	lsls	r1, r1, #8
	ands	r0, r1
	lsrs	r0, r0, #8
.Ltmp36:
	.loc	2 231 9                         @ ../../../../Library/StdDriver/src/clk.c:231:9
	cmp	r0, #1
	bne	.LBB10_3
	b	.LBB10_2
.LBB10_2:
	.loc	2 0 9                           @ ../../../../Library/StdDriver/src/clk.c:0:9
	ldr	r0, __arm_cp.10_2
.Ltmp37:
	.loc	2 232 28 is_stmt 1              @ ../../../../Library/StdDriver/src/clk.c:232:28
	str	r0, [sp, #4]
	.loc	2 232 9 is_stmt 0               @ ../../../../Library/StdDriver/src/clk.c:232:9
	b	.LBB10_4
.LBB10_3:
	.loc	2 0 9                           @ ../../../../Library/StdDriver/src/clk.c:0:9
	ldr	r0, __arm_cp.10_1
	.loc	2 234 28 is_stmt 1              @ ../../../../Library/StdDriver/src/clk.c:234:28
	str	r0, [sp, #4]
	b	.LBB10_4
.Ltmp38:
.LBB10_4:
	.loc	2 236 8                         @ ../../../../Library/StdDriver/src/clk.c:236:8
	ldr	r0, [sp, #12]
	.loc	2 236 18 is_stmt 0              @ ../../../../Library/StdDriver/src/clk.c:236:18
	ldr	r1, [sp, #4]
.Ltmp39:
	.loc	2 236 8                         @ ../../../../Library/StdDriver/src/clk.c:236:8
	cmp	r0, r1
	bls	.LBB10_6
	b	.LBB10_5
.LBB10_5:
.Ltmp40:
	.loc	2 237 19 is_stmt 1              @ ../../../../Library/StdDriver/src/clk.c:237:19
	ldr	r0, [sp, #4]
	.loc	2 237 17 is_stmt 0              @ ../../../../Library/StdDriver/src/clk.c:237:17
	str	r0, [sp, #12]
	.loc	2 237 9                         @ ../../../../Library/StdDriver/src/clk.c:237:9
	b	.LBB10_6
.Ltmp41:
.LBB10_6:
	.loc	2 238 8 is_stmt 1               @ ../../../../Library/StdDriver/src/clk.c:238:8
	ldr	r0, [sp, #12]
	ldr	r1, __arm_cp.10_3
.Ltmp42:
	.loc	2 238 8 is_stmt 0               @ ../../../../Library/StdDriver/src/clk.c:238:8
	cmp	r0, r1
	bhi	.LBB10_8
	b	.LBB10_7
.LBB10_7:
	.loc	2 0 8                           @ ../../../../Library/StdDriver/src/clk.c:0:8
	ldr	r0, __arm_cp.10_4
.Ltmp43:
	.loc	2 239 17 is_stmt 1              @ ../../../../Library/StdDriver/src/clk.c:239:17
	str	r0, [sp, #12]
	.loc	2 239 9 is_stmt 0               @ ../../../../Library/StdDriver/src/clk.c:239:9
	b	.LBB10_8
.Ltmp44:
.LBB10_8:
	.loc	2 0 9                           @ ../../../../Library/StdDriver/src/clk.c:0:9
	ldr	r1, __arm_cp.10_5
	.loc	2 242 17 is_stmt 1              @ ../../../../Library/StdDriver/src/clk.c:242:17
	ldr	r0, [r1]
	movs	r2, #4
	orrs	r0, r2
	str	r0, [r1]
	movs	r0, #16
	.loc	2 243 5                         @ ../../../../Library/StdDriver/src/clk.c:243:5
	bl	CLK_WaitClockReady
	ldr	r1, __arm_cp.10_6
	.loc	2 244 18                        @ ../../../../Library/StdDriver/src/clk.c:244:18
	ldr	r0, [r1]
	movs	r2, #7
	orrs	r0, r2
	str	r0, [r1]
	ldr	r1, __arm_cp.10_7
	.loc	2 245 18                        @ ../../../../Library/StdDriver/src/clk.c:245:18
	ldr	r0, [r1]
	movs	r2, #15
	bics	r0, r2
	str	r0, [r1]
	ldr	r0, __arm_cp.10_0
.Ltmp45:
	.loc	2 248 13                        @ ../../../../Library/StdDriver/src/clk.c:248:13
	ldr	r0, [r0]
.Ltmp46:
	.loc	2 248 8 is_stmt 0               @ ../../../../Library/StdDriver/src/clk.c:248:8
	lsls	r0, r0, #31
	cmp	r0, #0
	beq	.LBB10_10
	b	.LBB10_9
.LBB10_9:
.Ltmp47:
	.loc	2 249 57 is_stmt 1              @ ../../../../Library/StdDriver/src/clk.c:249:57
	ldr	r0, [sp, #12]
	.loc	2 249 65 is_stmt 0              @ ../../../../Library/StdDriver/src/clk.c:249:65
	lsls	r1, r0, #1
	movs	r0, #0
	.loc	2 249 19                        @ ../../../../Library/StdDriver/src/clk.c:249:19
	bl	CLK_EnablePLL
	.loc	2 249 17                        @ ../../../../Library/StdDriver/src/clk.c:249:17
	str	r0, [sp, #12]
	.loc	2 249 9                         @ ../../../../Library/StdDriver/src/clk.c:249:9
	b	.LBB10_11
.LBB10_10:
.Ltmp48:
	.loc	2 254 63 is_stmt 1              @ ../../../../Library/StdDriver/src/clk.c:254:63
	ldr	r0, [sp, #12]
	.loc	2 254 71 is_stmt 0              @ ../../../../Library/StdDriver/src/clk.c:254:71
	lsls	r1, r0, #1
	movs	r0, #1
	lsls	r0, r0, #19
	.loc	2 254 19                        @ ../../../../Library/StdDriver/src/clk.c:254:19
	bl	CLK_EnablePLL
	.loc	2 254 17                        @ ../../../../Library/StdDriver/src/clk.c:254:17
	str	r0, [sp, #12]
	ldr	r0, __arm_cp.10_0
	.loc	2 257 27 is_stmt 1              @ ../../../../Library/StdDriver/src/clk.c:257:27
	ldr	r0, [r0]
	movs	r1, #16
	.loc	2 257 34 is_stmt 0              @ ../../../../Library/StdDriver/src/clk.c:257:34
	ands	r0, r1
	.loc	2 257 20                        @ ../../../../Library/StdDriver/src/clk.c:257:20
	str	r0, [sp, #8]
	b	.LBB10_11
.Ltmp49:
.LBB10_11:
	.loc	2 0 20                          @ ../../../../Library/StdDriver/src/clk.c:0:20
	movs	r0, #2
	movs	r1, #1
	.loc	2 264 5 is_stmt 1               @ ../../../../Library/StdDriver/src/clk.c:264:5
	bl	CLK_SetHCLK
.Ltmp50:
	.loc	2 267 8                         @ ../../../../Library/StdDriver/src/clk.c:267:8
	ldr	r0, [sp, #8]
.Ltmp51:
	.loc	2 267 8 is_stmt 0               @ ../../../../Library/StdDriver/src/clk.c:267:8
	cmp	r0, #0
	bne	.LBB10_13
	b	.LBB10_12
.LBB10_12:
	.loc	2 0 8                           @ ../../../../Library/StdDriver/src/clk.c:0:8
	ldr	r1, __arm_cp.10_5
.Ltmp52:
	.loc	2 268 21 is_stmt 1              @ ../../../../Library/StdDriver/src/clk.c:268:21
	ldr	r0, [r1]
	movs	r2, #4
	bics	r0, r2
	str	r0, [r1]
	.loc	2 268 9 is_stmt 0               @ ../../../../Library/StdDriver/src/clk.c:268:9
	b	.LBB10_13
.Ltmp53:
.LBB10_13:
	.loc	2 271 12 is_stmt 1              @ ../../../../Library/StdDriver/src/clk.c:271:12
	ldr	r0, [sp, #12]
	.loc	2 271 20 is_stmt 0              @ ../../../../Library/StdDriver/src/clk.c:271:20
	lsrs	r0, r0, #1
	.loc	2 271 5 epilogue_begin          @ ../../../../Library/StdDriver/src/clk.c:271:5
	add	sp, #16
	pop	{r7, pc}
.Ltmp54:
	.p2align	2
@ %bb.14:
	.loc	2 0 5                           @ ../../../../Library/StdDriver/src/clk.c:0:5
__arm_cp.10_0:
	.long	1073742416                      @ 0x40000250
.Lcpi_end19:
	.size	__arm_cp.10_0, .Lcpi_end19-__arm_cp.10_0
__arm_cp.10_1:
	.long	48000000                        @ 0x2dc6c00
.Lcpi_end20:
	.size	__arm_cp.10_1, .Lcpi_end20-__arm_cp.10_1
__arm_cp.10_2:
	.long	72000000                        @ 0x44aa200
.Lcpi_end21:
	.size	__arm_cp.10_2, .Lcpi_end21-__arm_cp.10_2
__arm_cp.10_3:
	.long	25499999                        @ 0x185195f
.Lcpi_end22:
	.size	__arm_cp.10_3, .Lcpi_end22-__arm_cp.10_3
__arm_cp.10_4:
	.long	25500000                        @ 0x1851960
.Lcpi_end23:
	.size	__arm_cp.10_4, .Lcpi_end23-__arm_cp.10_4
__arm_cp.10_5:
	.long	1073742336                      @ 0x40000200
.Lcpi_end24:
	.size	__arm_cp.10_5, .Lcpi_end24-__arm_cp.10_5
__arm_cp.10_6:
	.long	1073742352                      @ 0x40000210
.Lcpi_end25:
	.size	__arm_cp.10_6, .Lcpi_end25-__arm_cp.10_6
__arm_cp.10_7:
	.long	1073742368                      @ 0x40000220
.Lcpi_end26:
	.size	__arm_cp.10_7, .Lcpi_end26-__arm_cp.10_7
.Lfunc_end10:
	.size	CLK_SetCoreClock, .Lfunc_end10-CLK_SetCoreClock
	.cfi_endproc
	.cantunwind
	.fnend
                                        @ -- End function
	.section	.text.CLK_WaitClockReady,"ax",%progbits
	.hidden	CLK_WaitClockReady              @ -- Begin function CLK_WaitClockReady
	.globl	CLK_WaitClockReady
	.p2align	2
	.type	CLK_WaitClockReady,%function
	.code	16                              @ @CLK_WaitClockReady
	.thumb_func
CLK_WaitClockReady:
.Lfunc_begin11:
	.loc	2 772 0 is_stmt 1               @ ../../../../Library/StdDriver/src/clk.c:772:0
	.fnstart
	.cfi_startproc
@ %bb.0:
	.pad	#12
	sub	sp, #12
	.cfi_def_cfa_offset 12
	str	r0, [sp, #8]
.Ltmp55:
	.loc	2 773 30 prologue_end           @ ../../../../Library/StdDriver/src/clk.c:773:30
	ldr	r0, __arm_cp.11_0
	ldr	r0, [r0]
	.loc	2 773 46 is_stmt 0              @ ../../../../Library/StdDriver/src/clk.c:773:46
	lsrs	r0, r0, #1
	.loc	2 773 14                        @ ../../../../Library/StdDriver/src/clk.c:773:14
	str	r0, [sp, #4]
	movs	r0, #1
	.loc	2 774 14 is_stmt 1              @ ../../../../Library/StdDriver/src/clk.c:774:14
	str	r0, [sp]
	.loc	2 776 22                        @ ../../../../Library/StdDriver/src/clk.c:776:22
	ldr	r1, __arm_cp.11_1
	movs	r0, #0
	str	r0, [r1]
	.loc	2 777 5                         @ ../../../../Library/StdDriver/src/clk.c:777:5
	b	.LBB11_1
.LBB11_1:                               @ =>This Inner Loop Header: Depth=1
	.loc	2 0 5 is_stmt 0                 @ ../../../../Library/StdDriver/src/clk.c:0:5
	ldr	r0, __arm_cp.11_2
	.loc	2 777 17                        @ ../../../../Library/StdDriver/src/clk.c:777:17
	ldr	r0, [r0]
	.loc	2 777 26                        @ ../../../../Library/StdDriver/src/clk.c:777:26
	ldr	r1, [sp, #8]
	.loc	2 777 24                        @ ../../../../Library/StdDriver/src/clk.c:777:24
	ands	r0, r1
	.loc	2 777 5                         @ ../../../../Library/StdDriver/src/clk.c:777:5
	cmp	r0, r1
	beq	.LBB11_5
	b	.LBB11_2
.LBB11_2:                               @   in Loop: Header=BB11_1 Depth=1
.Ltmp56:
	.loc	2 779 12 is_stmt 1              @ ../../../../Library/StdDriver/src/clk.c:779:12
	ldr	r0, [sp, #4]
	subs	r0, r0, #1
	str	r0, [sp, #4]
.Ltmp57:
	.loc	2 779 12 is_stmt 0              @ ../../../../Library/StdDriver/src/clk.c:779:12
	cmp	r0, #0
	bne	.LBB11_4
	b	.LBB11_3
.LBB11_3:
	.loc	2 0 12                          @ ../../../../Library/StdDriver/src/clk.c:0:12
	movs	r0, #0
.Ltmp58:
	.loc	2 781 20 is_stmt 1              @ ../../../../Library/StdDriver/src/clk.c:781:20
	str	r0, [sp]
	.loc	2 782 13                        @ ../../../../Library/StdDriver/src/clk.c:782:13
	b	.LBB11_5
.Ltmp59:
.LBB11_4:                               @   in Loop: Header=BB11_1 Depth=1
	.loc	2 777 5                         @ ../../../../Library/StdDriver/src/clk.c:777:5
	b	.LBB11_1
.LBB11_5:
.Ltmp60:
	.loc	2 786 8                         @ ../../../../Library/StdDriver/src/clk.c:786:8
	ldr	r0, [sp, #4]
.Ltmp61:
	.loc	2 786 8 is_stmt 0               @ ../../../../Library/StdDriver/src/clk.c:786:8
	cmp	r0, #0
	bne	.LBB11_7
	b	.LBB11_6
.LBB11_6:
.Ltmp62:
	.loc	2 787 26 is_stmt 1              @ ../../../../Library/StdDriver/src/clk.c:787:26
	ldr	r1, __arm_cp.11_1
	movs	r0, #0
	mvns	r0, r0
	str	r0, [r1]
	.loc	2 787 9 is_stmt 0               @ ../../../../Library/StdDriver/src/clk.c:787:9
	b	.LBB11_7
.Ltmp63:
.LBB11_7:
	.loc	2 789 12 is_stmt 1              @ ../../../../Library/StdDriver/src/clk.c:789:12
	ldr	r0, [sp]
	.loc	2 789 5 epilogue_begin is_stmt 0 @ ../../../../Library/StdDriver/src/clk.c:789:5
	add	sp, #12
	bx	lr
.Ltmp64:
	.p2align	2
@ %bb.8:
	.loc	2 0 5                           @ ../../../../Library/StdDriver/src/clk.c:0:5
__arm_cp.11_0:
	.long	SystemCoreClock
.Lcpi_end27:
	.size	__arm_cp.11_0, .Lcpi_end27-__arm_cp.11_0
__arm_cp.11_1:
	.long	g_CLK_i32ErrCode
.Lcpi_end28:
	.size	__arm_cp.11_1, .Lcpi_end28-__arm_cp.11_1
__arm_cp.11_2:
	.long	1073742416                      @ 0x40000250
.Lcpi_end29:
	.size	__arm_cp.11_2, .Lcpi_end29-__arm_cp.11_2
.Lfunc_end11:
	.size	CLK_WaitClockReady, .Lfunc_end11-CLK_WaitClockReady
	.cfi_endproc
	.cantunwind
	.fnend
                                        @ -- End function
	.section	.text.CLK_EnablePLL,"ax",%progbits
	.hidden	CLK_EnablePLL                   @ -- Begin function CLK_EnablePLL
	.globl	CLK_EnablePLL
	.p2align	2
	.type	CLK_EnablePLL,%function
	.code	16                              @ @CLK_EnablePLL
	.thumb_func
CLK_EnablePLL:
.Lfunc_begin12:
	.loc	2 608 0 is_stmt 1               @ ../../../../Library/StdDriver/src/clk.c:608:0
	.fnstart
	.cfi_startproc
@ %bb.0:
	.save	{r7, lr}
	push	{r7, lr}
	.cfi_def_cfa_offset 8
	.cfi_offset lr, -4
	.cfi_offset r7, -8
	.pad	#72
	sub	sp, #72
	.cfi_def_cfa_offset 80
	str	r0, [sp, #64]
	str	r1, [sp, #60]
.Ltmp65:
	.loc	2 614 5 prologue_end            @ ../../../../Library/StdDriver/src/clk.c:614:5
	bl	CLK_DisablePLL
.Ltmp66:
	.loc	2 617 8                         @ ../../../../Library/StdDriver/src/clk.c:617:8
	ldr	r0, [sp, #64]
.Ltmp67:
	.loc	2 617 8 is_stmt 0               @ ../../../../Library/StdDriver/src/clk.c:617:8
	cmp	r0, #0
	bne	.LBB12_2
	b	.LBB12_1
.LBB12_1:
	.loc	2 0 8                           @ ../../../../Library/StdDriver/src/clk.c:0:8
	ldr	r2, __arm_cp.12_0
.Ltmp68:
	.loc	2 620 21 is_stmt 1              @ ../../../../Library/StdDriver/src/clk.c:620:21
	ldr	r1, [r2]
	movs	r0, #1
	orrs	r1, r0
	str	r1, [r2]
	.loc	2 623 9                         @ ../../../../Library/StdDriver/src/clk.c:623:9
	bl	CLK_WaitClockReady
	movs	r0, #0
	.loc	2 626 20                        @ ../../../../Library/StdDriver/src/clk.c:626:20
	str	r0, [sp, #40]
	ldr	r0, __arm_cp.12_2
	.loc	2 627 22                        @ ../../../../Library/StdDriver/src/clk.c:627:22
	str	r0, [sp, #56]
	movs	r0, #2
	.loc	2 630 15                        @ ../../../../Library/StdDriver/src/clk.c:630:15
	str	r0, [sp, #52]
	.loc	2 631 5                         @ ../../../../Library/StdDriver/src/clk.c:631:5
	b	.LBB12_3
.Ltmp69:
.LBB12_2:
	.loc	2 0 5 is_stmt 0                 @ ../../../../Library/StdDriver/src/clk.c:0:5
	ldr	r1, __arm_cp.12_0
.Ltmp70:
	.loc	2 637 21 is_stmt 1              @ ../../../../Library/StdDriver/src/clk.c:637:21
	ldr	r0, [r1]
	movs	r2, #4
	orrs	r0, r2
	str	r0, [r1]
	movs	r0, #16
	.loc	2 640 9                         @ ../../../../Library/StdDriver/src/clk.c:640:9
	bl	CLK_WaitClockReady
	movs	r0, #1
	lsls	r0, r0, #19
	.loc	2 643 20                        @ ../../../../Library/StdDriver/src/clk.c:643:20
	str	r0, [sp, #40]
	ldr	r0, __arm_cp.12_1
	.loc	2 644 22                        @ ../../../../Library/StdDriver/src/clk.c:644:22
	str	r0, [sp, #56]
	movs	r0, #2
	.loc	2 647 15                        @ ../../../../Library/StdDriver/src/clk.c:647:15
	str	r0, [sp, #52]
	b	.LBB12_3
.Ltmp71:
.LBB12_3:
	.loc	2 0 15 is_stmt 0                @ ../../../../Library/StdDriver/src/clk.c:0:15
	movs	r0, #1
	lsls	r0, r0, #30
.Ltmp72:
	.loc	2 653 10 is_stmt 1              @ ../../../../Library/StdDriver/src/clk.c:653:10
	ldr	r0, [r0]
	movs	r1, #15
	lsls	r1, r1, #8
	ands	r0, r1
	lsrs	r0, r0, #8
	.loc	2 653 52 is_stmt 0              @ ../../../../Library/StdDriver/src/clk.c:653:52
	cmp	r0, #6
	beq	.LBB12_5
	b	.LBB12_4
.LBB12_4:
	.loc	2 0 52                          @ ../../../../Library/StdDriver/src/clk.c:0:52
	movs	r0, #1
	lsls	r0, r0, #30
	.loc	2 653 56                        @ ../../../../Library/StdDriver/src/clk.c:653:56
	ldr	r0, [r0]
	movs	r1, #15
	lsls	r1, r1, #8
	ands	r0, r1
	lsrs	r0, r0, #8
.Ltmp73:
	.loc	2 653 9                         @ ../../../../Library/StdDriver/src/clk.c:653:9
	cmp	r0, #1
	bne	.LBB12_6
	b	.LBB12_5
.LBB12_5:
	.loc	2 0 9                           @ ../../../../Library/StdDriver/src/clk.c:0:9
	ldr	r0, __arm_cp.12_4
.Ltmp74:
	.loc	2 654 27 is_stmt 1              @ ../../../../Library/StdDriver/src/clk.c:654:27
	str	r0, [sp, #8]
	.loc	2 654 9 is_stmt 0               @ ../../../../Library/StdDriver/src/clk.c:654:9
	b	.LBB12_7
.LBB12_6:
	.loc	2 0 9                           @ ../../../../Library/StdDriver/src/clk.c:0:9
	ldr	r0, __arm_cp.12_3
	.loc	2 656 27 is_stmt 1              @ ../../../../Library/StdDriver/src/clk.c:656:27
	str	r0, [sp, #8]
	b	.LBB12_7
.Ltmp75:
.LBB12_7:
	.loc	2 658 9                         @ ../../../../Library/StdDriver/src/clk.c:658:9
	ldr	r0, [sp, #60]
	.loc	2 658 23 is_stmt 0              @ ../../../../Library/StdDriver/src/clk.c:658:23
	ldr	r1, [sp, #8]
	.loc	2 658 42                        @ ../../../../Library/StdDriver/src/clk.c:658:42
	cmp	r0, r1
	bhi	.LBB12_13
	b	.LBB12_8
.LBB12_8:
	.loc	2 658 46                        @ ../../../../Library/StdDriver/src/clk.c:658:46
	ldr	r0, [sp, #60]
	ldr	r1, __arm_cp.12_5
.Ltmp76:
	.loc	2 658 8                         @ ../../../../Library/StdDriver/src/clk.c:658:8
	cmp	r0, r1
	blo	.LBB12_13
	b	.LBB12_9
.LBB12_9:
.Ltmp77:
	.loc	2 660 13 is_stmt 1              @ ../../../../Library/StdDriver/src/clk.c:660:13
	ldr	r0, [sp, #60]
	ldr	r1, __arm_cp.12_3
.Ltmp78:
	.loc	2 660 13 is_stmt 0              @ ../../../../Library/StdDriver/src/clk.c:660:13
	cmp	r0, r1
	bhi	.LBB12_11
	b	.LBB12_10
.LBB12_10:
	.loc	2 0 13                          @ ../../../../Library/StdDriver/src/clk.c:0:13
	movs	r0, #4
.Ltmp79:
	.loc	2 662 19 is_stmt 1              @ ../../../../Library/StdDriver/src/clk.c:662:19
	str	r0, [sp, #44]
	movs	r0, #3
	.loc	2 663 23                        @ ../../../../Library/StdDriver/src/clk.c:663:23
	str	r0, [sp, #36]
	.loc	2 664 26                        @ ../../../../Library/StdDriver/src/clk.c:664:26
	ldr	r0, [sp, #60]
	.loc	2 664 37 is_stmt 0              @ ../../../../Library/StdDriver/src/clk.c:664:37
	lsls	r0, r0, #2
	.loc	2 664 24                        @ ../../../../Library/StdDriver/src/clk.c:664:24
	str	r0, [sp, #60]
	.loc	2 665 9 is_stmt 1               @ ../../../../Library/StdDriver/src/clk.c:665:9
	b	.LBB12_12
.Ltmp80:
.LBB12_11:
	.loc	2 0 9 is_stmt 0                 @ ../../../../Library/StdDriver/src/clk.c:0:9
	movs	r0, #2
.Ltmp81:
	.loc	2 668 19 is_stmt 1              @ ../../../../Library/StdDriver/src/clk.c:668:19
	str	r0, [sp, #44]
	.loc	2 669 23                        @ ../../../../Library/StdDriver/src/clk.c:669:23
	str	r0, [sp, #36]
	.loc	2 670 26                        @ ../../../../Library/StdDriver/src/clk.c:670:26
	ldr	r0, [sp, #60]
	.loc	2 670 37 is_stmt 0              @ ../../../../Library/StdDriver/src/clk.c:670:37
	lsls	r0, r0, #1
	.loc	2 670 24                        @ ../../../../Library/StdDriver/src/clk.c:670:24
	str	r0, [sp, #60]
	b	.LBB12_12
.Ltmp82:
.LBB12_12:
	.loc	2 672 5 is_stmt 1               @ ../../../../Library/StdDriver/src/clk.c:672:5
	b	.LBB12_14
.Ltmp83:
.LBB12_13:
	.loc	2 676 9                         @ ../../../../Library/StdDriver/src/clk.c:676:9
	b	.LBB12_36
.Ltmp84:
.LBB12_14:
	.loc	2 0 9 is_stmt 0                 @ ../../../../Library/StdDriver/src/clk.c:0:9
	movs	r0, #0
	mvns	r1, r0
	.loc	2 680 12 is_stmt 1              @ ../../../../Library/StdDriver/src/clk.c:680:12
	str	r1, [sp, #20]
	.loc	2 681 14                        @ ../../../../Library/StdDriver/src/clk.c:681:14
	str	r0, [sp, #12]
	.loc	2 682 14                        @ ../../../../Library/StdDriver/src/clk.c:682:14
	str	r0, [sp, #16]
	.loc	2 683 5                         @ ../../../../Library/StdDriver/src/clk.c:683:5
	b	.LBB12_15
.LBB12_15:                              @ =>This Loop Header: Depth=1
                                        @     Child Loop BB12_19 Depth 2
.Ltmp85:
	.loc	2 683 11 is_stmt 0              @ ../../../../Library/StdDriver/src/clk.c:683:11
	ldr	r0, [sp, #52]
.Ltmp86:
	.loc	2 683 5                         @ ../../../../Library/StdDriver/src/clk.c:683:5
	cmp	r0, #33
	bhi	.LBB12_35
	b	.LBB12_16
.LBB12_16:                              @   in Loop: Header=BB12_15 Depth=1
.Ltmp87:
	.loc	2 685 18 is_stmt 1              @ ../../../../Library/StdDriver/src/clk.c:685:18
	ldr	r0, [sp, #56]
	.loc	2 685 33 is_stmt 0              @ ../../../../Library/StdDriver/src/clk.c:685:33
	ldr	r1, [sp, #52]
	.loc	2 685 31                        @ ../../../../Library/StdDriver/src/clk.c:685:31
	bl	__aeabi_uidiv
	.loc	2 685 16                        @ ../../../../Library/StdDriver/src/clk.c:685:16
	str	r0, [sp, #32]
.Ltmp88:
	.loc	2 687 13 is_stmt 1              @ ../../../../Library/StdDriver/src/clk.c:687:13
	ldr	r0, [sp, #32]
	ldr	r1, __arm_cp.12_10
	.loc	2 687 31 is_stmt 0              @ ../../../../Library/StdDriver/src/clk.c:687:31
	cmp	r0, r1
	blo	.LBB12_33
	b	.LBB12_17
.LBB12_17:                              @   in Loop: Header=BB12_15 Depth=1
	.loc	2 687 35                        @ ../../../../Library/StdDriver/src/clk.c:687:35
	ldr	r0, [sp, #32]
	ldr	r1, __arm_cp.12_11
.Ltmp89:
	.loc	2 687 12                        @ ../../../../Library/StdDriver/src/clk.c:687:12
	cmp	r0, r1
	bhi	.LBB12_33
	b	.LBB12_18
.LBB12_18:                              @   in Loop: Header=BB12_15 Depth=1
	.loc	2 0 12                          @ ../../../../Library/StdDriver/src/clk.c:0:12
	movs	r0, #2
.Ltmp90:
	.loc	2 689 23 is_stmt 1              @ ../../../../Library/StdDriver/src/clk.c:689:23
	str	r0, [sp, #48]
	.loc	2 689 17 is_stmt 0              @ ../../../../Library/StdDriver/src/clk.c:689:17
	b	.LBB12_19
.LBB12_19:                              @   Parent Loop BB12_15 Depth=1
                                        @ =>  This Inner Loop Header: Depth=2
.Ltmp91:
	.loc	2 689 28                        @ ../../../../Library/StdDriver/src/clk.c:689:28
	ldr	r0, [sp, #48]
	ldr	r1, __arm_cp.12_12
.Ltmp92:
	.loc	2 689 13                        @ ../../../../Library/StdDriver/src/clk.c:689:13
	cmp	r0, r1
	bhi	.LBB12_32
	b	.LBB12_20
.LBB12_20:                              @   in Loop: Header=BB12_19 Depth=2
.Ltmp93:
	.loc	2 691 27 is_stmt 1              @ ../../../../Library/StdDriver/src/clk.c:691:27
	ldr	r1, [sp, #32]
	.loc	2 691 36 is_stmt 0              @ ../../../../Library/StdDriver/src/clk.c:691:36
	ldr	r0, [sp, #48]
	.loc	2 691 34                        @ ../../../../Library/StdDriver/src/clk.c:691:34
	muls	r0, r1, r0
	.loc	2 691 25                        @ ../../../../Library/StdDriver/src/clk.c:691:25
	str	r0, [sp, #28]
.Ltmp94:
	.loc	2 693 21 is_stmt 1              @ ../../../../Library/StdDriver/src/clk.c:693:21
	ldr	r0, [sp, #28]
	ldr	r1, __arm_cp.12_13
	.loc	2 693 43 is_stmt 0              @ ../../../../Library/StdDriver/src/clk.c:693:43
	cmp	r0, r1
	blo	.LBB12_30
	b	.LBB12_21
.LBB12_21:                              @   in Loop: Header=BB12_19 Depth=2
	.loc	2 693 47                        @ ../../../../Library/StdDriver/src/clk.c:693:47
	ldr	r0, [sp, #28]
	ldr	r1, __arm_cp.12_14
.Ltmp95:
	.loc	2 693 20                        @ ../../../../Library/StdDriver/src/clk.c:693:20
	cmp	r0, r1
	bhi	.LBB12_30
	b	.LBB12_22
.LBB12_22:                              @   in Loop: Header=BB12_19 Depth=2
.Ltmp96:
	.loc	2 695 32 is_stmt 1              @ ../../../../Library/StdDriver/src/clk.c:695:32
	ldr	r0, [sp, #28]
	.loc	2 695 42 is_stmt 0              @ ../../../../Library/StdDriver/src/clk.c:695:42
	ldr	r1, [sp, #60]
	.loc	2 695 31                        @ ../../../../Library/StdDriver/src/clk.c:695:31
	cmp	r0, r1
	bls	.LBB12_24
	b	.LBB12_23
.LBB12_23:                              @   in Loop: Header=BB12_19 Depth=2
	.loc	2 695 56                        @ ../../../../Library/StdDriver/src/clk.c:695:56
	ldr	r0, [sp, #28]
	.loc	2 695 66                        @ ../../../../Library/StdDriver/src/clk.c:695:66
	ldr	r1, [sp, #60]
	.loc	2 695 64                        @ ../../../../Library/StdDriver/src/clk.c:695:64
	subs	r0, r0, r1
	.loc	2 695 31                        @ ../../../../Library/StdDriver/src/clk.c:695:31
	str	r0, [sp, #4]                    @ 4-byte Spill
	b	.LBB12_25
.LBB12_24:                              @   in Loop: Header=BB12_19 Depth=2
	.loc	2 695 79                        @ ../../../../Library/StdDriver/src/clk.c:695:79
	ldr	r0, [sp, #60]
	.loc	2 695 92                        @ ../../../../Library/StdDriver/src/clk.c:695:92
	ldr	r1, [sp, #28]
	.loc	2 695 90                        @ ../../../../Library/StdDriver/src/clk.c:695:90
	subs	r0, r0, r1
	.loc	2 695 31                        @ ../../../../Library/StdDriver/src/clk.c:695:31
	str	r0, [sp, #4]                    @ 4-byte Spill
	b	.LBB12_25
.LBB12_25:                              @   in Loop: Header=BB12_19 Depth=2
	ldr	r0, [sp, #4]                    @ 4-byte Reload
	.loc	2 695 29                        @ ../../../../Library/StdDriver/src/clk.c:695:29
	str	r0, [sp, #24]
.Ltmp97:
	.loc	2 696 24 is_stmt 1              @ ../../../../Library/StdDriver/src/clk.c:696:24
	ldr	r0, [sp, #24]
	.loc	2 696 34 is_stmt 0              @ ../../../../Library/StdDriver/src/clk.c:696:34
	ldr	r1, [sp, #20]
.Ltmp98:
	.loc	2 696 24                        @ ../../../../Library/StdDriver/src/clk.c:696:24
	cmp	r0, r1
	bhs	.LBB12_29
	b	.LBB12_26
.LBB12_26:                              @   in Loop: Header=BB12_19 Depth=2
.Ltmp99:
	.loc	2 698 34 is_stmt 1              @ ../../../../Library/StdDriver/src/clk.c:698:34
	ldr	r0, [sp, #24]
	.loc	2 698 32 is_stmt 0              @ ../../../../Library/StdDriver/src/clk.c:698:32
	str	r0, [sp, #20]
	.loc	2 699 36 is_stmt 1              @ ../../../../Library/StdDriver/src/clk.c:699:36
	ldr	r0, [sp, #52]
	.loc	2 699 34 is_stmt 0              @ ../../../../Library/StdDriver/src/clk.c:699:34
	str	r0, [sp, #12]
	.loc	2 700 36 is_stmt 1              @ ../../../../Library/StdDriver/src/clk.c:700:36
	ldr	r0, [sp, #48]
	.loc	2 700 34 is_stmt 0              @ ../../../../Library/StdDriver/src/clk.c:700:34
	str	r0, [sp, #16]
.Ltmp100:
	.loc	2 703 28 is_stmt 1              @ ../../../../Library/StdDriver/src/clk.c:703:28
	ldr	r0, [sp, #20]
.Ltmp101:
	.loc	2 703 28 is_stmt 0              @ ../../../../Library/StdDriver/src/clk.c:703:28
	cmp	r0, #0
	bne	.LBB12_28
	b	.LBB12_27
.LBB12_27:                              @   in Loop: Header=BB12_15 Depth=1
.Ltmp102:
	.loc	2 704 29 is_stmt 1              @ ../../../../Library/StdDriver/src/clk.c:704:29
	b	.LBB12_32
.Ltmp103:
.LBB12_28:                              @   in Loop: Header=BB12_19 Depth=2
	.loc	2 705 21                        @ ../../../../Library/StdDriver/src/clk.c:705:21
	b	.LBB12_29
.Ltmp104:
.LBB12_29:                              @   in Loop: Header=BB12_19 Depth=2
	.loc	2 706 17                        @ ../../../../Library/StdDriver/src/clk.c:706:17
	b	.LBB12_30
.Ltmp105:
.LBB12_30:                              @   in Loop: Header=BB12_19 Depth=2
	.loc	2 707 13                        @ ../../../../Library/StdDriver/src/clk.c:707:13
	b	.LBB12_31
.Ltmp106:
.LBB12_31:                              @   in Loop: Header=BB12_19 Depth=2
	.loc	2 689 47                        @ ../../../../Library/StdDriver/src/clk.c:689:47
	ldr	r0, [sp, #48]
	adds	r0, r0, #1
	str	r0, [sp, #48]
	.loc	2 689 13 is_stmt 0              @ ../../../../Library/StdDriver/src/clk.c:689:13
	b	.LBB12_19
.Ltmp107:
.LBB12_32:                              @   in Loop: Header=BB12_15 Depth=1
	.loc	2 708 9 is_stmt 1               @ ../../../../Library/StdDriver/src/clk.c:708:9
	b	.LBB12_33
.Ltmp108:
.LBB12_33:                              @   in Loop: Header=BB12_15 Depth=1
	.loc	2 709 5                         @ ../../../../Library/StdDriver/src/clk.c:709:5
	b	.LBB12_34
.Ltmp109:
.LBB12_34:                              @   in Loop: Header=BB12_15 Depth=1
	.loc	2 683 29                        @ ../../../../Library/StdDriver/src/clk.c:683:29
	ldr	r0, [sp, #52]
	adds	r0, r0, #1
	str	r0, [sp, #52]
	.loc	2 683 5 is_stmt 0               @ ../../../../Library/StdDriver/src/clk.c:683:5
	b	.LBB12_15
.Ltmp110:
.LBB12_35:
	.loc	2 712 19 is_stmt 1              @ ../../../../Library/StdDriver/src/clk.c:712:19
	ldr	r0, [sp, #40]
	.loc	2 713 20                        @ ../../../../Library/StdDriver/src/clk.c:713:20
	ldr	r1, [sp, #36]
	.loc	2 713 30 is_stmt 0              @ ../../../../Library/StdDriver/src/clk.c:713:30
	lsls	r1, r1, #14
	.loc	2 712 30 is_stmt 1              @ ../../../../Library/StdDriver/src/clk.c:712:30
	orrs	r0, r1
	.loc	2 714 21                        @ ../../../../Library/StdDriver/src/clk.c:714:21
	ldr	r1, [sp, #12]
	.loc	2 714 30 is_stmt 0              @ ../../../../Library/StdDriver/src/clk.c:714:30
	lsls	r1, r1, #9
	ldr	r2, __arm_cp.12_9
	.loc	2 714 35                        @ ../../../../Library/StdDriver/src/clk.c:714:35
	adds	r1, r1, r2
	.loc	2 713 56 is_stmt 1              @ ../../../../Library/StdDriver/src/clk.c:713:56
	orrs	r0, r1
	.loc	2 715 21                        @ ../../../../Library/StdDriver/src/clk.c:715:21
	ldr	r1, [sp, #16]
	.loc	2 715 30 is_stmt 0              @ ../../../../Library/StdDriver/src/clk.c:715:30
	subs	r1, r1, #2
	.loc	2 714 60 is_stmt 1              @ ../../../../Library/StdDriver/src/clk.c:714:60
	orrs	r0, r1
	ldr	r1, __arm_cp.12_6
	.loc	2 712 17                        @ ../../../../Library/StdDriver/src/clk.c:712:17
	str	r0, [r1]
	movs	r0, #4
	.loc	2 718 5                         @ ../../../../Library/StdDriver/src/clk.c:718:5
	bl	CLK_WaitClockReady
	.loc	2 721 13                        @ ../../../../Library/StdDriver/src/clk.c:721:13
	ldr	r0, [sp, #56]
	.loc	2 721 29 is_stmt 0              @ ../../../../Library/StdDriver/src/clk.c:721:29
	ldr	r2, [sp, #44]
	.loc	2 721 37                        @ ../../../../Library/StdDriver/src/clk.c:721:37
	ldr	r1, [sp, #12]
	.loc	2 721 35                        @ ../../../../Library/StdDriver/src/clk.c:721:35
	muls	r1, r2, r1
	.loc	2 721 26                        @ ../../../../Library/StdDriver/src/clk.c:721:26
	bl	__aeabi_uidiv
	mov	r1, r0
	.loc	2 721 49                        @ ../../../../Library/StdDriver/src/clk.c:721:49
	ldr	r0, [sp, #16]
	.loc	2 721 47                        @ ../../../../Library/StdDriver/src/clk.c:721:47
	muls	r0, r1, r0
	.loc	2 721 5                         @ ../../../../Library/StdDriver/src/clk.c:721:5
	str	r0, [sp, #68]
	b	.LBB12_40
.LBB12_36:
.Ltmp111:
	@DEBUG_LABEL: CLK_EnablePLL:lexit
	.loc	2 726 8 is_stmt 1               @ ../../../../Library/StdDriver/src/clk.c:726:8
	ldr	r0, [sp, #64]
.Ltmp112:
	.loc	2 726 8 is_stmt 0               @ ../../../../Library/StdDriver/src/clk.c:726:8
	cmp	r0, #0
	bne	.LBB12_38
	b	.LBB12_37
.LBB12_37:
	.loc	2 0 8                           @ ../../../../Library/StdDriver/src/clk.c:0:8
	ldr	r1, __arm_cp.12_6
	ldr	r0, __arm_cp.12_8
.Ltmp113:
	.loc	2 727 21 is_stmt 1              @ ../../../../Library/StdDriver/src/clk.c:727:21
	str	r0, [r1]
	.loc	2 727 9 is_stmt 0               @ ../../../../Library/StdDriver/src/clk.c:727:9
	b	.LBB12_39
.LBB12_38:
	.loc	2 0 9                           @ ../../../../Library/StdDriver/src/clk.c:0:9
	ldr	r1, __arm_cp.12_6
	ldr	r0, __arm_cp.12_7
	.loc	2 729 21 is_stmt 1              @ ../../../../Library/StdDriver/src/clk.c:729:21
	str	r0, [r1]
	b	.LBB12_39
.Ltmp114:
.LBB12_39:
	.loc	2 0 21 is_stmt 0                @ ../../../../Library/StdDriver/src/clk.c:0:21
	movs	r0, #4
	.loc	2 732 5 is_stmt 1               @ ../../../../Library/StdDriver/src/clk.c:732:5
	bl	CLK_WaitClockReady
	.loc	2 734 12                        @ ../../../../Library/StdDriver/src/clk.c:734:12
	bl	CLK_GetPLLClockFreq
	.loc	2 734 5 is_stmt 0               @ ../../../../Library/StdDriver/src/clk.c:734:5
	str	r0, [sp, #68]
	b	.LBB12_40
.LBB12_40:
	.loc	2 735 1 is_stmt 1               @ ../../../../Library/StdDriver/src/clk.c:735:1
	ldr	r0, [sp, #68]
	.loc	2 735 1 epilogue_begin is_stmt 0 @ ../../../../Library/StdDriver/src/clk.c:735:1
	add	sp, #72
	pop	{r7, pc}
.Ltmp115:
	.p2align	2
@ %bb.41:
	.loc	2 0 1                           @ ../../../../Library/StdDriver/src/clk.c:0:1
__arm_cp.12_0:
	.long	1073742336                      @ 0x40000200
.Lcpi_end30:
	.size	__arm_cp.12_0, .Lcpi_end30-__arm_cp.12_0
__arm_cp.12_1:
	.long	12000000                        @ 0xb71b00
.Lcpi_end31:
	.size	__arm_cp.12_1, .Lcpi_end31-__arm_cp.12_1
__arm_cp.12_2:
	.long	32000000                        @ 0x1e84800
.Lcpi_end32:
	.size	__arm_cp.12_2, .Lcpi_end32-__arm_cp.12_2
__arm_cp.12_3:
	.long	96000000                        @ 0x5b8d800
.Lcpi_end33:
	.size	__arm_cp.12_3, .Lcpi_end33-__arm_cp.12_3
__arm_cp.12_4:
	.long	144000000                       @ 0x8954400
.Lcpi_end34:
	.size	__arm_cp.12_4, .Lcpi_end34-__arm_cp.12_4
__arm_cp.12_5:
	.long	51000000                        @ 0x30a32c0
.Lcpi_end35:
	.size	__arm_cp.12_5, .Lcpi_end35-__arm_cp.12_5
__arm_cp.12_6:
	.long	1073742400                      @ 0x40000240
.Lcpi_end36:
	.size	__arm_cp.12_6, .Lcpi_end36-__arm_cp.12_6
__arm_cp.12_7:
	.long	574046                          @ 0x8c25e
.Lcpi_end37:
	.size	__arm_cp.12_7, .Lcpi_end37-__arm_cp.12_7
__arm_cp.12_8:
	.long	52318                           @ 0xcc5e
.Lcpi_end38:
	.size	__arm_cp.12_8, .Lcpi_end38-__arm_cp.12_8
__arm_cp.12_9:
	.long	4294966272                      @ 0xfffffc00
.Lcpi_end39:
	.size	__arm_cp.12_9, .Lcpi_end39-__arm_cp.12_9
__arm_cp.12_10:
	.long	1600001                         @ 0x186a01
.Lcpi_end40:
	.size	__arm_cp.12_10, .Lcpi_end40-__arm_cp.12_10
__arm_cp.12_11:
	.long	15999999                        @ 0xf423ff
.Lcpi_end41:
	.size	__arm_cp.12_11, .Lcpi_end41-__arm_cp.12_11
__arm_cp.12_12:
	.long	513                             @ 0x201
.Lcpi_end42:
	.size	__arm_cp.12_12, .Lcpi_end42-__arm_cp.12_12
__arm_cp.12_13:
	.long	200000000                       @ 0xbebc200
.Lcpi_end43:
	.size	__arm_cp.12_13, .Lcpi_end43-__arm_cp.12_13
__arm_cp.12_14:
	.long	499999999                       @ 0x1dcd64ff
.Lcpi_end44:
	.size	__arm_cp.12_14, .Lcpi_end44-__arm_cp.12_14
.Lfunc_end12:
	.size	CLK_EnablePLL, .Lfunc_end12-CLK_EnablePLL
	.cfi_endproc
	.cantunwind
	.fnend
                                        @ -- End function
	.section	.text.CLK_SetHCLK,"ax",%progbits
	.hidden	CLK_SetHCLK                     @ -- Begin function CLK_SetHCLK
	.globl	CLK_SetHCLK
	.p2align	2
	.type	CLK_SetHCLK,%function
	.code	16                              @ @CLK_SetHCLK
	.thumb_func
CLK_SetHCLK:
.Lfunc_begin13:
	.loc	2 289 0 is_stmt 1               @ ../../../../Library/StdDriver/src/clk.c:289:0
	.fnstart
	.cfi_startproc
@ %bb.0:
	.save	{r4, lr}
	push	{r4, lr}
	.cfi_def_cfa_offset 8
	.cfi_offset lr, -4
	.cfi_offset r4, -8
	.pad	#16
	sub	sp, #16
	.cfi_def_cfa_offset 24
	str	r0, [sp, #12]
	str	r1, [sp, #8]
	ldr	r0, __arm_cp.13_0
.Ltmp116:
	.loc	2 293 23 prologue_end           @ ../../../../Library/StdDriver/src/clk.c:293:23
	ldr	r1, [r0]
	movs	r0, #16
	.loc	2 293 30 is_stmt 0              @ ../../../../Library/StdDriver/src/clk.c:293:30
	ands	r1, r0
	.loc	2 293 16                        @ ../../../../Library/StdDriver/src/clk.c:293:16
	str	r1, [sp, #4]
	ldr	r2, __arm_cp.13_1
	.loc	2 296 17 is_stmt 1              @ ../../../../Library/StdDriver/src/clk.c:296:17
	ldr	r1, [r2]
	movs	r3, #4
	orrs	r1, r3
	str	r1, [r2]
	.loc	2 297 5                         @ ../../../../Library/StdDriver/src/clk.c:297:5
	bl	CLK_WaitClockReady
	ldr	r1, __arm_cp.13_2
	.loc	2 298 26                        @ ../../../../Library/StdDriver/src/clk.c:298:26
	ldr	r0, [r1]
	movs	r2, #7
	.loc	2 298 64 is_stmt 0              @ ../../../../Library/StdDriver/src/clk.c:298:64
	orrs	r0, r2
	.loc	2 298 18                        @ ../../../../Library/StdDriver/src/clk.c:298:18
	str	r0, [r1]
	ldr	r3, __arm_cp.13_3
	.loc	2 301 26 is_stmt 1              @ ../../../../Library/StdDriver/src/clk.c:301:26
	ldr	r0, [r3]
	movs	r4, #15
	.loc	2 301 34 is_stmt 0              @ ../../../../Library/StdDriver/src/clk.c:301:34
	bics	r0, r4
	.loc	2 301 66                        @ ../../../../Library/StdDriver/src/clk.c:301:66
	ldr	r4, [sp, #8]
	.loc	2 301 64                        @ ../../../../Library/StdDriver/src/clk.c:301:64
	orrs	r0, r4
	.loc	2 301 18                        @ ../../../../Library/StdDriver/src/clk.c:301:18
	str	r0, [r3]
	.loc	2 304 26 is_stmt 1              @ ../../../../Library/StdDriver/src/clk.c:304:26
	ldr	r0, [r1]
	.loc	2 304 34 is_stmt 0              @ ../../../../Library/StdDriver/src/clk.c:304:34
	bics	r0, r2
	.loc	2 304 66                        @ ../../../../Library/StdDriver/src/clk.c:304:66
	ldr	r2, [sp, #12]
	.loc	2 304 64                        @ ../../../../Library/StdDriver/src/clk.c:304:64
	orrs	r0, r2
	.loc	2 304 18                        @ ../../../../Library/StdDriver/src/clk.c:304:18
	str	r0, [r1]
	.loc	2 307 5 is_stmt 1               @ ../../../../Library/StdDriver/src/clk.c:307:5
	bl	SystemCoreClockUpdate
.Ltmp117:
	.loc	2 310 8                         @ ../../../../Library/StdDriver/src/clk.c:310:8
	ldr	r0, [sp, #4]
.Ltmp118:
	.loc	2 310 8 is_stmt 0               @ ../../../../Library/StdDriver/src/clk.c:310:8
	cmp	r0, #0
	bne	.LBB13_2
	b	.LBB13_1
.LBB13_1:
	.loc	2 0 8                           @ ../../../../Library/StdDriver/src/clk.c:0:8
	ldr	r1, __arm_cp.13_1
.Ltmp119:
	.loc	2 311 21 is_stmt 1              @ ../../../../Library/StdDriver/src/clk.c:311:21
	ldr	r0, [r1]
	movs	r2, #4
	bics	r0, r2
	str	r0, [r1]
	.loc	2 311 9 is_stmt 0               @ ../../../../Library/StdDriver/src/clk.c:311:9
	b	.LBB13_2
.Ltmp120:
.LBB13_2:
	.loc	2 312 1 epilogue_begin is_stmt 1 @ ../../../../Library/StdDriver/src/clk.c:312:1
	add	sp, #16
	pop	{r4, pc}
.Ltmp121:
	.p2align	2
@ %bb.3:
	.loc	2 0 1 is_stmt 0                 @ ../../../../Library/StdDriver/src/clk.c:0:1
__arm_cp.13_0:
	.long	1073742416                      @ 0x40000250
.Lcpi_end45:
	.size	__arm_cp.13_0, .Lcpi_end45-__arm_cp.13_0
__arm_cp.13_1:
	.long	1073742336                      @ 0x40000200
.Lcpi_end46:
	.size	__arm_cp.13_1, .Lcpi_end46-__arm_cp.13_1
__arm_cp.13_2:
	.long	1073742352                      @ 0x40000210
.Lcpi_end47:
	.size	__arm_cp.13_2, .Lcpi_end47-__arm_cp.13_2
__arm_cp.13_3:
	.long	1073742368                      @ 0x40000220
.Lcpi_end48:
	.size	__arm_cp.13_3, .Lcpi_end48-__arm_cp.13_3
.Lfunc_end13:
	.size	CLK_SetHCLK, .Lfunc_end13-CLK_SetHCLK
	.cfi_endproc
	.cantunwind
	.fnend
                                        @ -- End function
	.section	.text.CLK_SetModuleClock,"ax",%progbits
	.hidden	CLK_SetModuleClock              @ -- Begin function CLK_SetModuleClock
	.globl	CLK_SetModuleClock
	.p2align	2
	.type	CLK_SetModuleClock,%function
	.code	16                              @ @CLK_SetModuleClock
	.thumb_func
CLK_SetModuleClock:
.Lfunc_begin14:
	.loc	2 432 0 is_stmt 1               @ ../../../../Library/StdDriver/src/clk.c:432:0
	.fnstart
	.cfi_startproc
@ %bb.0:
	.pad	#52
	sub	sp, #52
	.cfi_def_cfa_offset 52
	str	r0, [sp, #48]
	str	r1, [sp, #44]
	str	r2, [sp, #40]
	movs	r0, #0
.Ltmp122:
	.loc	2 433 14 prologue_end           @ ../../../../Library/StdDriver/src/clk.c:433:14
	str	r0, [sp, #36]
	.loc	2 433 26 is_stmt 0              @ ../../../../Library/StdDriver/src/clk.c:433:26
	str	r0, [sp, #32]
	movs	r1, #12
	.loc	2 434 14 is_stmt 1              @ ../../../../Library/StdDriver/src/clk.c:434:14
	str	r1, [sp, #28]
	movs	r1, #8
	str	r1, [sp, #24]
	movs	r1, #4
	str	r1, [sp, #20]
	str	r0, [sp, #16]
	movs	r1, #16
	.loc	2 435 14                        @ ../../../../Library/StdDriver/src/clk.c:435:14
	str	r1, [sp, #12]
	str	r0, [sp, #8]
	str	r0, [sp, #4]
	str	r0, [sp]
.Ltmp123:
	.loc	2 437 8                         @ ../../../../Library/StdDriver/src/clk.c:437:8
	ldr	r0, [sp, #48]
	lsrs	r0, r0, #10
.Ltmp124:
	.loc	2 437 8 is_stmt 0               @ ../../../../Library/StdDriver/src/clk.c:437:8
	lsls	r0, r0, #24
	cmp	r0, #0
	beq	.LBB14_2
	b	.LBB14_1
.LBB14_1:
	.loc	2 0 8                           @ ../../../../Library/StdDriver/src/clk.c:0:8
	add	r0, sp, #48
.Ltmp125:
	.loc	2 440 55 is_stmt 1              @ ../../../../Library/StdDriver/src/clk.c:440:55
	ldrh	r1, [r0, #2]
	movs	r0, #12
	.loc	2 440 45 is_stmt 0              @ ../../../../Library/StdDriver/src/clk.c:440:45
	ands	r1, r0
	mov	r0, sp
	ldr	r0, [r0, r1]
	ldr	r1, __arm_cp.14_0
	.loc	2 440 42                        @ ../../../../Library/StdDriver/src/clk.c:440:42
	adds	r0, r0, r1
	.loc	2 440 16                        @ ../../../../Library/StdDriver/src/clk.c:440:16
	str	r0, [sp, #32]
	.loc	2 442 24 is_stmt 1              @ ../../../../Library/StdDriver/src/clk.c:442:24
	ldr	r0, [sp, #32]
	ldr	r0, [r0]
	.loc	2 442 41 is_stmt 0              @ ../../../../Library/StdDriver/src/clk.c:442:41
	ldr	r2, [sp, #48]
	lsrs	r1, r2, #10
	uxtb	r1, r1
	.loc	2 442 76                        @ ../../../../Library/StdDriver/src/clk.c:442:76
	lsls	r2, r2, #22
	lsrs	r2, r2, #27
	.loc	2 442 73                        @ ../../../../Library/StdDriver/src/clk.c:442:73
	lsls	r1, r2
	.loc	2 442 36                        @ ../../../../Library/StdDriver/src/clk.c:442:36
	bics	r0, r1
	.loc	2 442 113                       @ ../../../../Library/StdDriver/src/clk.c:442:113
	ldr	r1, [sp, #40]
	.loc	2 442 111                       @ ../../../../Library/StdDriver/src/clk.c:442:111
	orrs	r0, r1
	.loc	2 442 9                         @ ../../../../Library/StdDriver/src/clk.c:442:9
	ldr	r1, [sp, #32]
	.loc	2 442 21                        @ ../../../../Library/StdDriver/src/clk.c:442:21
	str	r0, [r1]
	.loc	2 443 5 is_stmt 1               @ ../../../../Library/StdDriver/src/clk.c:443:5
	b	.LBB14_2
.Ltmp126:
.LBB14_2:
	.loc	2 445 8                         @ ../../../../Library/StdDriver/src/clk.c:445:8
	ldr	r0, [sp, #48]
	lsls	r0, r0, #4
	lsrs	r0, r0, #29
.Ltmp127:
	.loc	2 445 8 is_stmt 0               @ ../../../../Library/StdDriver/src/clk.c:445:8
	cmp	r0, #0
	beq	.LBB14_4
	b	.LBB14_3
.LBB14_3:
.Ltmp128:
	.loc	2 448 55 is_stmt 1              @ ../../../../Library/StdDriver/src/clk.c:448:55
	ldr	r0, [sp, #48]
	.loc	2 448 45 is_stmt 0              @ ../../../../Library/StdDriver/src/clk.c:448:45
	lsrs	r1, r0, #26
	movs	r0, #12
	ands	r1, r0
	add	r0, sp, #16
	ldr	r0, [r0, r1]
	ldr	r1, __arm_cp.14_1
	.loc	2 448 42                        @ ../../../../Library/StdDriver/src/clk.c:448:42
	adds	r0, r0, r1
	.loc	2 448 16                        @ ../../../../Library/StdDriver/src/clk.c:448:16
	str	r0, [sp, #36]
	.loc	2 450 24 is_stmt 1              @ ../../../../Library/StdDriver/src/clk.c:450:24
	ldr	r0, [sp, #36]
	ldr	r0, [r0]
	.loc	2 450 41 is_stmt 0              @ ../../../../Library/StdDriver/src/clk.c:450:41
	ldr	r2, [sp, #48]
	lsls	r1, r2, #4
	lsrs	r1, r1, #29
	.loc	2 450 76                        @ ../../../../Library/StdDriver/src/clk.c:450:76
	lsls	r2, r2, #7
	lsrs	r2, r2, #27
	.loc	2 450 73                        @ ../../../../Library/StdDriver/src/clk.c:450:73
	lsls	r1, r2
	.loc	2 450 36                        @ ../../../../Library/StdDriver/src/clk.c:450:36
	bics	r0, r1
	.loc	2 450 113                       @ ../../../../Library/StdDriver/src/clk.c:450:113
	ldr	r1, [sp, #44]
	.loc	2 450 111                       @ ../../../../Library/StdDriver/src/clk.c:450:111
	orrs	r0, r1
	.loc	2 450 9                         @ ../../../../Library/StdDriver/src/clk.c:450:9
	ldr	r1, [sp, #36]
	.loc	2 450 21                        @ ../../../../Library/StdDriver/src/clk.c:450:21
	str	r0, [r1]
	.loc	2 451 5 is_stmt 1               @ ../../../../Library/StdDriver/src/clk.c:451:5
	b	.LBB14_4
.Ltmp129:
.LBB14_4:
	.loc	2 452 1 epilogue_begin          @ ../../../../Library/StdDriver/src/clk.c:452:1
	add	sp, #52
	bx	lr
.Ltmp130:
	.p2align	2
@ %bb.5:
	.loc	2 0 1 is_stmt 0                 @ ../../../../Library/StdDriver/src/clk.c:0:1
__arm_cp.14_0:
	.long	1073742368                      @ 0x40000220
.Lcpi_end49:
	.size	__arm_cp.14_0, .Lcpi_end49-__arm_cp.14_0
__arm_cp.14_1:
	.long	1073742352                      @ 0x40000210
.Lcpi_end50:
	.size	__arm_cp.14_1, .Lcpi_end50-__arm_cp.14_1
.Lfunc_end14:
	.size	CLK_SetModuleClock, .Lfunc_end14-CLK_SetModuleClock
	.cfi_endproc
	.cantunwind
	.fnend
                                        @ -- End function
	.section	.text.CLK_SetSysTickClockSrc,"ax",%progbits
	.hidden	CLK_SetSysTickClockSrc          @ -- Begin function CLK_SetSysTickClockSrc
	.globl	CLK_SetSysTickClockSrc
	.p2align	2
	.type	CLK_SetSysTickClockSrc,%function
	.code	16                              @ @CLK_SetSysTickClockSrc
	.thumb_func
CLK_SetSysTickClockSrc:
.Lfunc_begin15:
	.loc	2 467 0 is_stmt 1               @ ../../../../Library/StdDriver/src/clk.c:467:0
	.fnstart
	.cfi_startproc
@ %bb.0:
	.pad	#4
	sub	sp, #4
	.cfi_def_cfa_offset 4
	str	r0, [sp]
	ldr	r1, __arm_cp.15_0
.Ltmp131:
	.loc	2 468 26 prologue_end           @ ../../../../Library/StdDriver/src/clk.c:468:26
	ldr	r0, [r1]
	movs	r2, #56
	.loc	2 468 34 is_stmt 0              @ ../../../../Library/StdDriver/src/clk.c:468:34
	bics	r0, r2
	.loc	2 468 65                        @ ../../../../Library/StdDriver/src/clk.c:468:65
	ldr	r2, [sp]
	.loc	2 468 63                        @ ../../../../Library/StdDriver/src/clk.c:468:63
	orrs	r0, r2
	.loc	2 468 18                        @ ../../../../Library/StdDriver/src/clk.c:468:18
	str	r0, [r1]
	.loc	2 469 1 epilogue_begin is_stmt 1 @ ../../../../Library/StdDriver/src/clk.c:469:1
	add	sp, #4
	bx	lr
.Ltmp132:
	.p2align	2
@ %bb.1:
	.loc	2 0 1 is_stmt 0                 @ ../../../../Library/StdDriver/src/clk.c:0:1
__arm_cp.15_0:
	.long	1073742352                      @ 0x40000210
.Lcpi_end51:
	.size	__arm_cp.15_0, .Lcpi_end51-__arm_cp.15_0
.Lfunc_end15:
	.size	CLK_SetSysTickClockSrc, .Lfunc_end15-CLK_SetSysTickClockSrc
	.cfi_endproc
	.cantunwind
	.fnend
                                        @ -- End function
	.section	.text.CLK_EnableXtalRC,"ax",%progbits
	.hidden	CLK_EnableXtalRC                @ -- Begin function CLK_EnableXtalRC
	.globl	CLK_EnableXtalRC
	.p2align	2
	.type	CLK_EnableXtalRC,%function
	.code	16                              @ @CLK_EnableXtalRC
	.thumb_func
CLK_EnableXtalRC:
.Lfunc_begin16:
	.loc	2 483 0 is_stmt 1               @ ../../../../Library/StdDriver/src/clk.c:483:0
	.fnstart
	.cfi_startproc
@ %bb.0:
	.pad	#4
	sub	sp, #4
	.cfi_def_cfa_offset 4
	str	r0, [sp]
.Ltmp133:
	.loc	2 484 20 prologue_end           @ ../../../../Library/StdDriver/src/clk.c:484:20
	ldr	r2, [sp]
	ldr	r1, __arm_cp.16_0
	.loc	2 484 17 is_stmt 0              @ ../../../../Library/StdDriver/src/clk.c:484:17
	ldr	r0, [r1]
	orrs	r0, r2
	str	r0, [r1]
	.loc	2 485 1 epilogue_begin is_stmt 1 @ ../../../../Library/StdDriver/src/clk.c:485:1
	add	sp, #4
	bx	lr
.Ltmp134:
	.p2align	2
@ %bb.1:
	.loc	2 0 1 is_stmt 0                 @ ../../../../Library/StdDriver/src/clk.c:0:1
__arm_cp.16_0:
	.long	1073742336                      @ 0x40000200
.Lcpi_end52:
	.size	__arm_cp.16_0, .Lcpi_end52-__arm_cp.16_0
.Lfunc_end16:
	.size	CLK_EnableXtalRC, .Lfunc_end16-CLK_EnableXtalRC
	.cfi_endproc
	.cantunwind
	.fnend
                                        @ -- End function
	.section	.text.CLK_DisableXtalRC,"ax",%progbits
	.hidden	CLK_DisableXtalRC               @ -- Begin function CLK_DisableXtalRC
	.globl	CLK_DisableXtalRC
	.p2align	2
	.type	CLK_DisableXtalRC,%function
	.code	16                              @ @CLK_DisableXtalRC
	.thumb_func
CLK_DisableXtalRC:
.Lfunc_begin17:
	.loc	2 499 0 is_stmt 1               @ ../../../../Library/StdDriver/src/clk.c:499:0
	.fnstart
	.cfi_startproc
@ %bb.0:
	.pad	#4
	sub	sp, #4
	.cfi_def_cfa_offset 4
	str	r0, [sp]
.Ltmp135:
	.loc	2 500 21 prologue_end           @ ../../../../Library/StdDriver/src/clk.c:500:21
	ldr	r2, [sp]
	ldr	r1, __arm_cp.17_0
	.loc	2 500 17 is_stmt 0              @ ../../../../Library/StdDriver/src/clk.c:500:17
	ldr	r0, [r1]
	bics	r0, r2
	str	r0, [r1]
	.loc	2 501 1 epilogue_begin is_stmt 1 @ ../../../../Library/StdDriver/src/clk.c:501:1
	add	sp, #4
	bx	lr
.Ltmp136:
	.p2align	2
@ %bb.1:
	.loc	2 0 1 is_stmt 0                 @ ../../../../Library/StdDriver/src/clk.c:0:1
__arm_cp.17_0:
	.long	1073742336                      @ 0x40000200
.Lcpi_end53:
	.size	__arm_cp.17_0, .Lcpi_end53-__arm_cp.17_0
.Lfunc_end17:
	.size	CLK_DisableXtalRC, .Lfunc_end17-CLK_DisableXtalRC
	.cfi_endproc
	.cantunwind
	.fnend
                                        @ -- End function
	.section	.text.CLK_EnableModuleClock,"ax",%progbits
	.hidden	CLK_EnableModuleClock           @ -- Begin function CLK_EnableModuleClock
	.globl	CLK_EnableModuleClock
	.p2align	2
	.type	CLK_EnableModuleClock,%function
	.code	16                              @ @CLK_EnableModuleClock
	.thumb_func
CLK_EnableModuleClock:
.Lfunc_begin18:
	.loc	2 544 0 is_stmt 1               @ ../../../../Library/StdDriver/src/clk.c:544:0
	.fnstart
	.cfi_startproc
@ %bb.0:
	.pad	#16
	sub	sp, #16
	.cfi_def_cfa_offset 16
	str	r0, [sp, #12]
	movs	r0, #8
.Ltmp137:
	.loc	2 545 14 prologue_end           @ ../../../../Library/StdDriver/src/clk.c:545:14
	str	r0, [sp, #8]
	movs	r0, #4
	str	r0, [sp, #4]
	movs	r0, #0
	str	r0, [sp]
	.loc	2 547 104                       @ ../../../../Library/StdDriver/src/clk.c:547:104
	ldr	r0, [sp, #12]
	movs	r2, #31
	mov	r1, r0
	ands	r1, r2
	movs	r3, #1
	.loc	2 547 101 is_stmt 0             @ ../../../../Library/StdDriver/src/clk.c:547:101
	lsls	r3, r1
	.loc	2 547 54                        @ ../../../../Library/StdDriver/src/clk.c:547:54
	lsrs	r0, r0, #30
	lsls	r1, r0, #2
	mov	r0, sp
	ldr	r1, [r0, r1]
	ldr	r2, __arm_cp.18_0
	.loc	2 547 96                        @ ../../../../Library/StdDriver/src/clk.c:547:96
	ldr	r0, [r1, r2]
	orrs	r0, r3
	str	r0, [r1, r2]
	.loc	2 548 1 epilogue_begin is_stmt 1 @ ../../../../Library/StdDriver/src/clk.c:548:1
	add	sp, #16
	bx	lr
.Ltmp138:
	.p2align	2
@ %bb.1:
	.loc	2 0 1 is_stmt 0                 @ ../../../../Library/StdDriver/src/clk.c:0:1
__arm_cp.18_0:
	.long	1073742340                      @ 0x40000204
.Lcpi_end54:
	.size	__arm_cp.18_0, .Lcpi_end54-__arm_cp.18_0
.Lfunc_end18:
	.size	CLK_EnableModuleClock, .Lfunc_end18-CLK_EnableModuleClock
	.cfi_endproc
	.cantunwind
	.fnend
                                        @ -- End function
	.section	.text.CLK_DisableModuleClock,"ax",%progbits
	.hidden	CLK_DisableModuleClock          @ -- Begin function CLK_DisableModuleClock
	.globl	CLK_DisableModuleClock
	.p2align	2
	.type	CLK_DisableModuleClock,%function
	.code	16                              @ @CLK_DisableModuleClock
	.thumb_func
CLK_DisableModuleClock:
.Lfunc_begin19:
	.loc	2 591 0 is_stmt 1               @ ../../../../Library/StdDriver/src/clk.c:591:0
	.fnstart
	.cfi_startproc
@ %bb.0:
	.pad	#16
	sub	sp, #16
	.cfi_def_cfa_offset 16
	str	r0, [sp, #12]
	movs	r0, #8
.Ltmp139:
	.loc	2 592 14 prologue_end           @ ../../../../Library/StdDriver/src/clk.c:592:14
	str	r0, [sp, #8]
	movs	r0, #4
	str	r0, [sp, #4]
	movs	r0, #0
	str	r0, [sp]
	.loc	2 594 106                       @ ../../../../Library/StdDriver/src/clk.c:594:106
	ldr	r0, [sp, #12]
	movs	r2, #31
	mov	r1, r0
	ands	r1, r2
	movs	r3, #1
	.loc	2 594 103 is_stmt 0             @ ../../../../Library/StdDriver/src/clk.c:594:103
	lsls	r3, r1
	.loc	2 594 54                        @ ../../../../Library/StdDriver/src/clk.c:594:54
	lsrs	r0, r0, #30
	lsls	r1, r0, #2
	mov	r0, sp
	ldr	r1, [r0, r1]
	ldr	r2, __arm_cp.19_0
	.loc	2 594 96                        @ ../../../../Library/StdDriver/src/clk.c:594:96
	ldr	r0, [r1, r2]
	bics	r0, r3
	str	r0, [r1, r2]
	.loc	2 595 1 epilogue_begin is_stmt 1 @ ../../../../Library/StdDriver/src/clk.c:595:1
	add	sp, #16
	bx	lr
.Ltmp140:
	.p2align	2
@ %bb.1:
	.loc	2 0 1 is_stmt 0                 @ ../../../../Library/StdDriver/src/clk.c:0:1
__arm_cp.19_0:
	.long	1073742340                      @ 0x40000204
.Lcpi_end55:
	.size	__arm_cp.19_0, .Lcpi_end55-__arm_cp.19_0
.Lfunc_end19:
	.size	CLK_DisableModuleClock, .Lfunc_end19-CLK_DisableModuleClock
	.cfi_endproc
	.cantunwind
	.fnend
                                        @ -- End function
	.section	.text.CLK_DisablePLL,"ax",%progbits
	.hidden	CLK_DisablePLL                  @ -- Begin function CLK_DisablePLL
	.globl	CLK_DisablePLL
	.p2align	2
	.type	CLK_DisablePLL,%function
	.code	16                              @ @CLK_DisablePLL
	.thumb_func
CLK_DisablePLL:
.Lfunc_begin20:
	.loc	2 746 0 is_stmt 1               @ ../../../../Library/StdDriver/src/clk.c:746:0
	.fnstart
	.cfi_startproc
@ %bb.0:
	.save	{r7, lr}
	push	{r7, lr}
	.cfi_def_cfa_offset 8
	.cfi_offset lr, -4
	.cfi_offset r7, -8
	ldr	r0, __arm_cp.20_0
.Ltmp141:
	.loc	2 748 15 prologue_end           @ ../../../../Library/StdDriver/src/clk.c:748:15
	ldr	r0, [r0]
	movs	r1, #7
	.loc	2 748 23 is_stmt 0              @ ../../../../Library/StdDriver/src/clk.c:748:23
	ands	r0, r1
.Ltmp142:
	.loc	2 748 9                         @ ../../../../Library/StdDriver/src/clk.c:748:9
	cmp	r0, #2
	bne	.LBB20_2
	b	.LBB20_1
.LBB20_1:
	.loc	2 0 9                           @ ../../../../Library/StdDriver/src/clk.c:0:9
	ldr	r1, __arm_cp.20_1
.Ltmp143:
	.loc	2 750 21 is_stmt 1              @ ../../../../Library/StdDriver/src/clk.c:750:21
	ldr	r0, [r1]
	movs	r2, #4
	orrs	r0, r2
	str	r0, [r1]
	movs	r0, #16
	.loc	2 751 9                         @ ../../../../Library/StdDriver/src/clk.c:751:9
	bl	CLK_WaitClockReady
	ldr	r1, __arm_cp.20_0
	.loc	2 752 30                        @ ../../../../Library/StdDriver/src/clk.c:752:30
	ldr	r0, [r1]
	movs	r2, #7
	.loc	2 752 68 is_stmt 0              @ ../../../../Library/StdDriver/src/clk.c:752:68
	orrs	r0, r2
	.loc	2 752 22                        @ ../../../../Library/StdDriver/src/clk.c:752:22
	str	r0, [r1]
	.loc	2 753 5 is_stmt 1               @ ../../../../Library/StdDriver/src/clk.c:753:5
	b	.LBB20_2
.Ltmp144:
.LBB20_2:
	.loc	2 0 5 is_stmt 0                 @ ../../../../Library/StdDriver/src/clk.c:0:5
	ldr	r1, __arm_cp.20_2
	.loc	2 755 17 is_stmt 1              @ ../../../../Library/StdDriver/src/clk.c:755:17
	ldr	r0, [r1]
	movs	r2, #1
	lsls	r2, r2, #16
	orrs	r0, r2
	str	r0, [r1]
	.loc	2 756 1 epilogue_begin          @ ../../../../Library/StdDriver/src/clk.c:756:1
	pop	{r7, pc}
.Ltmp145:
	.p2align	2
@ %bb.3:
	.loc	2 0 1 is_stmt 0                 @ ../../../../Library/StdDriver/src/clk.c:0:1
__arm_cp.20_0:
	.long	1073742352                      @ 0x40000210
.Lcpi_end56:
	.size	__arm_cp.20_0, .Lcpi_end56-__arm_cp.20_0
__arm_cp.20_1:
	.long	1073742336                      @ 0x40000200
.Lcpi_end57:
	.size	__arm_cp.20_1, .Lcpi_end57-__arm_cp.20_1
__arm_cp.20_2:
	.long	1073742400                      @ 0x40000240
.Lcpi_end58:
	.size	__arm_cp.20_2, .Lcpi_end58-__arm_cp.20_2
.Lfunc_end20:
	.size	CLK_DisablePLL, .Lfunc_end20-CLK_DisablePLL
	.cfi_endproc
	.cantunwind
	.fnend
                                        @ -- End function
	.section	.text.CLK_GetPLLClockFreq,"ax",%progbits
	.p2align	2                               @ -- Begin function CLK_GetPLLClockFreq
	.type	CLK_GetPLLClockFreq,%function
	.code	16                              @ @CLK_GetPLLClockFreq
	.thumb_func
CLK_GetPLLClockFreq:
.Lfunc_begin21:
	.file	7 "C:\\Users\\jcliu\\Downloads\\m032_cpp_cout_gpio_int_ac6\\SampleCode\\StdDriver\\CPP_IN_OUT\\KEIL" "../../../../Library/StdDriver/inc\\clk.h"
	.loc	7 462 0 is_stmt 1               @ ../../../../Library/StdDriver/inc\clk.h:462:0
	.fnstart
	.cfi_startproc
@ %bb.0:
	.save	{r7, lr}
	push	{r7, lr}
	.cfi_def_cfa_offset 8
	.cfi_offset lr, -4
	.cfi_offset r7, -8
	.pad	#32
	sub	sp, #32
	.cfi_def_cfa_offset 40
	ldr	r0, __arm_cp.21_0
.Ltmp146:
	.loc	7 465 13 prologue_end           @ ../../../../Library/StdDriver/inc\clk.h:465:13
	str	r0, [sp, #8]
	movs	r0, #0
	.loc	7 468 16                        @ ../../../../Library/StdDriver/inc\clk.h:468:16
	str	r0, [sp, #28]
	ldr	r0, __arm_cp.21_1
	.loc	7 469 19                        @ ../../../../Library/StdDriver/inc\clk.h:469:19
	ldr	r0, [r0]
	.loc	7 469 12 is_stmt 0              @ ../../../../Library/StdDriver/inc\clk.h:469:12
	str	r0, [sp, #4]
	add	r0, sp, #4
	.loc	7 471 9 is_stmt 1               @ ../../../../Library/StdDriver/inc\clk.h:471:9
	ldrb	r0, [r0, #2]
	movs	r1, #5
	tst	r0, r1
	bne	.LBB21_8
	b	.LBB21_1
.LBB21_1:
	.loc	7 0 9 is_stmt 0                 @ ../../../../Library/StdDriver/inc\clk.h:0:9
	add	r0, sp, #4
.Ltmp147:
	.loc	7 474 13 is_stmt 1              @ ../../../../Library/StdDriver/inc\clk.h:474:13
	ldrb	r0, [r0, #2]
	lsls	r0, r0, #28
	cmp	r0, #0
	bpl	.LBB21_3
	b	.LBB21_2
.LBB21_2:
	.loc	7 0 13 is_stmt 0                @ ../../../../Library/StdDriver/inc\clk.h:0:13
	ldr	r0, __arm_cp.21_3
.Ltmp148:
	.loc	7 476 20 is_stmt 1              @ ../../../../Library/StdDriver/inc\clk.h:476:20
	str	r0, [sp, #24]
	.loc	7 477 9                         @ ../../../../Library/StdDriver/inc\clk.h:477:9
	b	.LBB21_4
.Ltmp149:
.LBB21_3:
	.loc	7 0 9 is_stmt 0                 @ ../../../../Library/StdDriver/inc\clk.h:0:9
	ldr	r0, __arm_cp.21_2
	.loc	7 478 20 is_stmt 1              @ ../../../../Library/StdDriver/inc\clk.h:478:20
	str	r0, [sp, #24]
	b	.LBB21_4
.Ltmp150:
.LBB21_4:
	.loc	7 0 20 is_stmt 0                @ ../../../../Library/StdDriver/inc\clk.h:0:20
	add	r0, sp, #4
	.loc	7 480 13 is_stmt 1              @ ../../../../Library/StdDriver/inc\clk.h:480:13
	ldrb	r0, [r0, #2]
	lsls	r0, r0, #30
	cmp	r0, #0
	bpl	.LBB21_6
	b	.LBB21_5
.LBB21_5:
.Ltmp151:
	.loc	7 483 26                        @ ../../../../Library/StdDriver/inc\clk.h:483:26
	ldr	r0, [sp, #24]
	.loc	7 483 24 is_stmt 0              @ ../../../../Library/StdDriver/inc\clk.h:483:24
	str	r0, [sp, #28]
	.loc	7 484 9 is_stmt 1               @ ../../../../Library/StdDriver/inc\clk.h:484:9
	b	.LBB21_7
.Ltmp152:
.LBB21_6:
	.loc	7 0 9 is_stmt 0                 @ ../../../../Library/StdDriver/inc\clk.h:0:9
	add	r0, sp, #4
.Ltmp153:
	.loc	7 488 32 is_stmt 1              @ ../../../../Library/StdDriver/inc\clk.h:488:32
	ldrh	r0, [r0]
	.loc	7 488 64 is_stmt 0              @ ../../../../Library/StdDriver/inc\clk.h:488:64
	lsrs	r1, r0, #14
	add	r0, sp, #8
	.loc	7 488 21                        @ ../../../../Library/StdDriver/inc\clk.h:488:21
	adds	r0, r0, r1
	ldrb	r0, [r0]
	.loc	7 488 19                        @ ../../../../Library/StdDriver/inc\clk.h:488:19
	str	r0, [sp, #12]
	.loc	7 489 24 is_stmt 1              @ ../../../../Library/StdDriver/inc\clk.h:489:24
	ldr	r0, [sp, #4]
	ldr	r1, __arm_cp.21_4
	.loc	7 489 31 is_stmt 0              @ ../../../../Library/StdDriver/inc\clk.h:489:31
	ands	r0, r1
	.loc	7 489 80                        @ ../../../../Library/StdDriver/inc\clk.h:489:80
	adds	r0, r0, #2
	.loc	7 489 20                        @ ../../../../Library/StdDriver/inc\clk.h:489:20
	str	r0, [sp, #20]
	.loc	7 490 24 is_stmt 1              @ ../../../../Library/StdDriver/inc\clk.h:490:24
	ldr	r0, [sp, #4]
	movs	r1, #31
	lsls	r1, r1, #9
	.loc	7 490 31 is_stmt 0              @ ../../../../Library/StdDriver/inc\clk.h:490:31
	ands	r0, r1
	.loc	7 490 55                        @ ../../../../Library/StdDriver/inc\clk.h:490:55
	lsrs	r0, r0, #9
	.loc	7 490 80                        @ ../../../../Library/StdDriver/inc\clk.h:490:80
	adds	r0, r0, #2
	.loc	7 490 20                        @ ../../../../Library/StdDriver/inc\clk.h:490:20
	str	r0, [sp, #16]
	.loc	7 492 29 is_stmt 1              @ ../../../../Library/StdDriver/inc\clk.h:492:29
	ldr	r0, [sp, #24]
	.loc	7 492 36 is_stmt 0              @ ../../../../Library/StdDriver/inc\clk.h:492:36
	lsrs	r1, r0, #2
	.loc	7 492 44                        @ ../../../../Library/StdDriver/inc\clk.h:492:44
	ldr	r0, [sp, #20]
	.loc	7 492 42                        @ ../../../../Library/StdDriver/inc\clk.h:492:42
	muls	r0, r1, r0
	.loc	7 492 54                        @ ../../../../Library/StdDriver/inc\clk.h:492:54
	ldr	r2, [sp, #16]
	.loc	7 492 62                        @ ../../../../Library/StdDriver/inc\clk.h:492:62
	ldr	r1, [sp, #12]
	.loc	7 492 60                        @ ../../../../Library/StdDriver/inc\clk.h:492:60
	muls	r1, r2, r1
	.loc	7 492 51                        @ ../../../../Library/StdDriver/inc\clk.h:492:51
	bl	__aeabi_uidiv
	.loc	7 492 69                        @ ../../../../Library/StdDriver/inc\clk.h:492:69
	lsls	r0, r0, #2
	.loc	7 492 24                        @ ../../../../Library/StdDriver/inc\clk.h:492:24
	str	r0, [sp, #28]
	b	.LBB21_7
.Ltmp154:
.LBB21_7:
	.loc	7 494 5 is_stmt 1               @ ../../../../Library/StdDriver/inc\clk.h:494:5
	b	.LBB21_8
.Ltmp155:
.LBB21_8:
	.loc	7 496 12                        @ ../../../../Library/StdDriver/inc\clk.h:496:12
	ldr	r0, [sp, #28]
	.loc	7 496 5 epilogue_begin is_stmt 0 @ ../../../../Library/StdDriver/inc\clk.h:496:5
	add	sp, #32
	pop	{r7, pc}
.Ltmp156:
	.p2align	2
@ %bb.9:
	.loc	7 0 5                           @ ../../../../Library/StdDriver/inc\clk.h:0:5
__arm_cp.21_0:
	.long	67240449                        @ 0x4020201
.Lcpi_end59:
	.size	__arm_cp.21_0, .Lcpi_end59-__arm_cp.21_0
__arm_cp.21_1:
	.long	1073742400                      @ 0x40000240
.Lcpi_end60:
	.size	__arm_cp.21_1, .Lcpi_end60-__arm_cp.21_1
__arm_cp.21_2:
	.long	32000000                        @ 0x1e84800
.Lcpi_end61:
	.size	__arm_cp.21_2, .Lcpi_end61-__arm_cp.21_2
__arm_cp.21_3:
	.long	12000000                        @ 0xb71b00
.Lcpi_end62:
	.size	__arm_cp.21_3, .Lcpi_end62-__arm_cp.21_3
__arm_cp.21_4:
	.long	511                             @ 0x1ff
.Lcpi_end63:
	.size	__arm_cp.21_4, .Lcpi_end63-__arm_cp.21_4
.Lfunc_end21:
	.size	CLK_GetPLLClockFreq, .Lfunc_end21-CLK_GetPLLClockFreq
	.cfi_endproc
	.cantunwind
	.fnend
                                        @ -- End function
	.section	.text.CLK_EnableSysTick,"ax",%progbits
	.hidden	CLK_EnableSysTick               @ -- Begin function CLK_EnableSysTick
	.globl	CLK_EnableSysTick
	.p2align	2
	.type	CLK_EnableSysTick,%function
	.code	16                              @ @CLK_EnableSysTick
	.thumb_func
CLK_EnableSysTick:
.Lfunc_begin22:
	.loc	2 807 0 is_stmt 1               @ ../../../../Library/StdDriver/src/clk.c:807:0
	.fnstart
	.cfi_startproc
@ %bb.0:
	.pad	#8
	sub	sp, #8
	.cfi_def_cfa_offset 8
	str	r0, [sp, #4]
	str	r1, [sp]
	ldr	r1, __arm_cp.22_0
	movs	r0, #0
.Ltmp157:
	.loc	2 809 19 prologue_end           @ ../../../../Library/StdDriver/src/clk.c:809:19
	str	r0, [r1]
.Ltmp158:
	.loc	2 812 8                         @ ../../../../Library/StdDriver/src/clk.c:812:8
	ldr	r0, [sp, #4]
.Ltmp159:
	.loc	2 812 8 is_stmt 0               @ ../../../../Library/StdDriver/src/clk.c:812:8
	cmp	r0, #4
	bne	.LBB22_2
	b	.LBB22_1
.LBB22_1:
	.loc	2 0 8                           @ ../../../../Library/StdDriver/src/clk.c:0:8
	ldr	r1, __arm_cp.22_0
.Ltmp160:
	.loc	2 813 23 is_stmt 1              @ ../../../../Library/StdDriver/src/clk.c:813:23
	ldr	r0, [r1]
	movs	r2, #4
	orrs	r0, r2
	str	r0, [r1]
	.loc	2 813 9 is_stmt 0               @ ../../../../Library/StdDriver/src/clk.c:813:9
	b	.LBB22_3
.LBB22_2:
	.loc	2 0 9                           @ ../../../../Library/StdDriver/src/clk.c:0:9
	ldr	r1, __arm_cp.22_1
	.loc	2 815 30 is_stmt 1              @ ../../../../Library/StdDriver/src/clk.c:815:30
	ldr	r0, [r1]
	movs	r2, #56
	.loc	2 815 38 is_stmt 0              @ ../../../../Library/StdDriver/src/clk.c:815:38
	bics	r0, r2
	.loc	2 815 69                        @ ../../../../Library/StdDriver/src/clk.c:815:69
	ldr	r2, [sp, #4]
	.loc	2 815 67                        @ ../../../../Library/StdDriver/src/clk.c:815:67
	orrs	r0, r2
	.loc	2 815 22                        @ ../../../../Library/StdDriver/src/clk.c:815:22
	str	r0, [r1]
	b	.LBB22_3
.Ltmp161:
.LBB22_3:
	.loc	2 818 21 is_stmt 1              @ ../../../../Library/StdDriver/src/clk.c:818:21
	ldr	r0, [sp]
	ldr	r1, __arm_cp.22_2
	.loc	2 818 19 is_stmt 0              @ ../../../../Library/StdDriver/src/clk.c:818:19
	str	r0, [r1]
	ldr	r1, __arm_cp.22_3
	movs	r0, #0
	.loc	2 821 18 is_stmt 1              @ ../../../../Library/StdDriver/src/clk.c:821:18
	str	r0, [r1]
	ldr	r1, __arm_cp.22_0
	.loc	2 824 19                        @ ../../../../Library/StdDriver/src/clk.c:824:19
	ldr	r0, [r1]
	movs	r2, #3
	orrs	r0, r2
	str	r0, [r1]
	.loc	2 825 1 epilogue_begin          @ ../../../../Library/StdDriver/src/clk.c:825:1
	add	sp, #8
	bx	lr
.Ltmp162:
	.p2align	2
@ %bb.4:
	.loc	2 0 1 is_stmt 0                 @ ../../../../Library/StdDriver/src/clk.c:0:1
__arm_cp.22_0:
	.long	3758153744                      @ 0xe000e010
.Lcpi_end64:
	.size	__arm_cp.22_0, .Lcpi_end64-__arm_cp.22_0
__arm_cp.22_1:
	.long	1073742352                      @ 0x40000210
.Lcpi_end65:
	.size	__arm_cp.22_1, .Lcpi_end65-__arm_cp.22_1
__arm_cp.22_2:
	.long	3758153748                      @ 0xe000e014
.Lcpi_end66:
	.size	__arm_cp.22_2, .Lcpi_end66-__arm_cp.22_2
__arm_cp.22_3:
	.long	3758153752                      @ 0xe000e018
.Lcpi_end67:
	.size	__arm_cp.22_3, .Lcpi_end67-__arm_cp.22_3
.Lfunc_end22:
	.size	CLK_EnableSysTick, .Lfunc_end22-CLK_EnableSysTick
	.cfi_endproc
	.cantunwind
	.fnend
                                        @ -- End function
	.section	.text.CLK_DisableSysTick,"ax",%progbits
	.hidden	CLK_DisableSysTick              @ -- Begin function CLK_DisableSysTick
	.globl	CLK_DisableSysTick
	.p2align	2
	.type	CLK_DisableSysTick,%function
	.code	16                              @ @CLK_DisableSysTick
	.thumb_func
CLK_DisableSysTick:
.Lfunc_begin23:
	.loc	2 834 0 is_stmt 1               @ ../../../../Library/StdDriver/src/clk.c:834:0
	.fnstart
	.cfi_startproc
@ %bb.0:
	ldr	r1, __arm_cp.23_0
	movs	r0, #0
.Ltmp163:
	.loc	2 836 19 prologue_end           @ ../../../../Library/StdDriver/src/clk.c:836:19
	str	r0, [r1]
	.loc	2 837 1                         @ ../../../../Library/StdDriver/src/clk.c:837:1
	bx	lr
.Ltmp164:
	.p2align	2
@ %bb.1:
	.loc	2 0 1 is_stmt 0                 @ ../../../../Library/StdDriver/src/clk.c:0:1
__arm_cp.23_0:
	.long	3758153744                      @ 0xe000e010
.Lcpi_end68:
	.size	__arm_cp.23_0, .Lcpi_end68-__arm_cp.23_0
.Lfunc_end23:
	.size	CLK_DisableSysTick, .Lfunc_end23-CLK_DisableSysTick
	.cfi_endproc
	.cantunwind
	.fnend
                                        @ -- End function
	.hidden	g_CLK_i32ErrCode                @ @g_CLK_i32ErrCode
	.type	g_CLK_i32ErrCode,%object
	.section	.bss.g_CLK_i32ErrCode,"aw",%nobits
	.globl	g_CLK_i32ErrCode
	.p2align	2, 0x0
g_CLK_i32ErrCode:
	.long	0                               @ 0x0
	.size	g_CLK_i32ErrCode, 4

	.type	.L__const.CLK_SetModuleClock.u32SelTbl,%object @ @__const.CLK_SetModuleClock.u32SelTbl
	.section	.rodata.cst16,"aM",%progbits,16
	.p2align	2, 0x0
.L__const.CLK_SetModuleClock.u32SelTbl:
	.long	0                               @ 0x0
	.long	4                               @ 0x4
	.long	8                               @ 0x8
	.long	12                              @ 0xc
	.size	.L__const.CLK_SetModuleClock.u32SelTbl, 16

	.type	.L__const.CLK_SetModuleClock.u32DivTbl,%object @ @__const.CLK_SetModuleClock.u32DivTbl
	.p2align	2, 0x0
.L__const.CLK_SetModuleClock.u32DivTbl:
	.long	0                               @ 0x0
	.long	0                               @ 0x0
	.long	0                               @ 0x0
	.long	16                              @ 0x10
	.size	.L__const.CLK_SetModuleClock.u32DivTbl, 16

	.type	.L__const.CLK_EnableModuleClock.u32ClkTbl,%object @ @__const.CLK_EnableModuleClock.u32ClkTbl
	.section	.rodata..L__const.CLK_EnableModuleClock.u32ClkTbl,"a",%progbits
	.p2align	2, 0x0
.L__const.CLK_EnableModuleClock.u32ClkTbl:
	.long	0                               @ 0x0
	.long	4                               @ 0x4
	.long	8                               @ 0x8
	.size	.L__const.CLK_EnableModuleClock.u32ClkTbl, 12

	.type	.L__const.CLK_DisableModuleClock.u32ClkTbl,%object @ @__const.CLK_DisableModuleClock.u32ClkTbl
	.section	.rodata..L__const.CLK_DisableModuleClock.u32ClkTbl,"a",%progbits
	.p2align	2, 0x0
.L__const.CLK_DisableModuleClock.u32ClkTbl:
	.long	0                               @ 0x0
	.long	4                               @ 0x4
	.long	8                               @ 0x8
	.size	.L__const.CLK_DisableModuleClock.u32ClkTbl, 12

	.type	.L__const.CLK_GetPLLClockFreq.au8NoTbl,%object @ @__const.CLK_GetPLLClockFreq.au8NoTbl
	.section	.rodata.cst4,"aM",%progbits,4
.L__const.CLK_GetPLLClockFreq.au8NoTbl:
	.ascii	"\001\002\002\004"
	.size	.L__const.CLK_GetPLLClockFreq.au8NoTbl, 4

	.section	".note.GNU-stack","",%progbits
	.eabi_attribute	30, 6	@ Tag_ABI_optimization_goals
	.ARM_attribute	16, 1	@ Tag_AV_eba